

Microchip MPLAB XC8 Assembler V2.46 build 20240104201356 
                                                                                               Fri Mar 22 16:40:40 2024

Microchip MPLAB XC8 C Compiler v2.46 (Free license) build 20240104201356 Og1 
     1                           	processor	16F877A
     2                           	pagewidth 120
     3                           	opt	flic
     4                           	psect	idataBANK0,global,class=CODE,delta=2,noexec
     5                           	psect	idataBANK1,global,class=CODE,delta=2,noexec
     6                           	psect	nvBANK0,global,class=BANK0,space=1,delta=1,noexec
     7                           	psect	nvBANK1,global,class=BANK1,space=1,delta=1,noexec
     8                           	psect	strings,global,class=STRING,delta=2,noexec
     9                           	psect	stringtext,global,reloc=256,class=STRCODE,delta=2,noexec
    10                           	psect	cinit,global,class=CODE,merge=1,delta=2
    11                           	psect	bssCOMMON,global,class=COMMON,space=1,delta=1,noexec
    12                           	psect	bssBANK0,global,class=BANK0,space=1,delta=1,noexec
    13                           	psect	dataBANK0,global,class=BANK0,space=1,delta=1,noexec
    14                           	psect	bssBANK1,global,class=BANK1,space=1,delta=1,noexec
    15                           	psect	dataBANK1,global,class=BANK1,space=1,delta=1,noexec
    16                           	psect	inittext,global,class=CODE,delta=2
    17                           	psect	cstackBANK1,global,class=BANK1,space=1,delta=1,noexec
    18                           	psect	cstackCOMMON,global,class=COMMON,space=1,delta=1,noexec
    19                           	psect	cstackBANK0,global,class=BANK0,space=1,delta=1,noexec
    20                           	psect	maintext,global,class=CODE,split=1,delta=2
    21                           	psect	text1,local,class=CODE,merge=1,delta=2
    22                           	psect	text2,local,class=CODE,merge=1,delta=2
    23                           	psect	text3,local,class=CODE,merge=1,delta=2
    24                           	psect	text4,local,class=CODE,merge=1,delta=2
    25                           	psect	text5,local,class=CODE,merge=1,delta=2
    26                           	psect	text6,local,class=CODE,merge=1,delta=2
    27                           	psect	text7,local,class=CODE,merge=1,delta=2,group=1
    28                           	psect	text8,local,class=CODE,merge=1,delta=2,group=1
    29                           	psect	text9,local,class=CODE,merge=1,delta=2,group=1
    30                           	psect	text10,local,class=CODE,merge=1,delta=2,group=1
    31                           	psect	text11,local,class=CODE,merge=1,delta=2,group=1
    32                           	psect	text12,local,class=CODE,merge=1,delta=2,group=1
    33                           	psect	text13,local,class=CODE,merge=1,delta=2,group=1
    34                           	psect	text14,local,class=CODE,merge=1,delta=2,group=1
    35                           	psect	text15,local,class=CODE,merge=1,delta=2,group=1
    36                           	psect	text16,local,class=CODE,merge=1,delta=2,group=1
    37                           	psect	text17,local,class=CODE,merge=1,delta=2
    38                           	psect	text18,local,class=CODE,merge=1,delta=2
    39                           	psect	text19,local,class=CODE,merge=1,delta=2
    40                           	psect	text20,local,class=CODE,merge=1,delta=2
    41                           	psect	text21,local,class=CODE,merge=1,delta=2
    42                           	psect	text22,local,class=CODE,merge=1,delta=2
    43                           	psect	text23,local,class=CODE,merge=1,delta=2
    44                           	psect	text24,local,class=CODE,merge=1,delta=2
    45                           	psect	text25,local,class=CODE,merge=1,delta=2
    46                           	psect	text26,local,class=CODE,merge=1,delta=2
    47                           	psect	text27,local,class=CODE,merge=1,delta=2
    48                           	psect	intentry,global,class=CODE,delta=2
    49                           	psect	config,global,abs,ovrld,class=CONFIG,space=4,delta=2,noexec
    50                           	dabs	1,0x7E,2
    51     0000                     
    52                           ; Version 2.20
    53                           ; Generated 12/02/2020 GMT
    54                           ; 
    55                           ; Copyright © 2020, Microchip Technology Inc. and its subsidiaries ("Microchip")
    56                           ; All rights reserved.
    57                           ; 
    58                           ; This software is developed by Microchip Technology Inc. and its subsidiaries ("Microch
      +                          ip").
    59                           ; 
    60                           ; Redistribution and use in source and binary forms, with or without modification, are
    61                           ; permitted provided that the following conditions are met:
    62                           ; 
    63                           ;     1. Redistributions of source code must retain the above copyright notice, this lis
      +                          t of
    64                           ;        conditions and the following disclaimer.
    65                           ; 
    66                           ;     2. Redistributions in binary form must reproduce the above copyright notice, this 
      +                          list
    67                           ;        of conditions and the following disclaimer in the documentation and/or other
    68                           ;        materials provided with the distribution.
    69                           ; 
    70                           ;     3. Microchip's name may not be used to endorse or promote products derived from th
      +                          is
    71                           ;        software without specific prior written permission.
    72                           ; 
    73                           ; THIS SOFTWARE IS PROVIDED BY MICROCHIP "AS IS" AND ANY EXPRESS OR IMPLIED WARRANTIES,
    74                           ; INCLUDING, BUT NOT LIMITED TO, THE IMPLIED WARRANTIES OF MERCHANTABILITY AND FITNESS F
      +                          OR
    75                           ; PURPOSE ARE DISCLAIMED.  IN NO EVENT SHALL MICROCHIP BE LIABLE FOR ANY DIRECT, INDIREC
      +                          T,
    76                           ; INCIDENTAL, SPECIAL, EXEMPLARY, OR CONSEQUENTIAL DAMAGES (INCLUDING BUT NOT LIMITED TO
    77                           ; PROCUREMENT OF SUBSTITUTE GOODS OR SERVICES; LOSS OF USE, DATA OR PROFITS; OR BUSINESS
    78                           ; INTERRUPTION) HOWSOEVER CAUSED AND ON ANY THEORY OF LIABILITY, WHETHER IN CONTRACT, ST
      +                          RICT
    79                           ; LIABILITY, OR TORT (INCLUDING NEGLIGENCE OR OTHERWISE) ARISING IN ANY WAY OUT OF THE U
      +                          SE OF
    80                           ; THIS SOFTWARE, EVEN IF ADVISED OF THE POSSIBILITY OF SUCH DAMAGE.
    81                           ; 
    82                           ; 
    83                           ; Code-generator required, PIC16F877A Definitions
    84                           ; 
    85                           ; SFR Addresses
    86     0000                     	;# 
    87     0001                     	;# 
    88     0002                     	;# 
    89     0003                     	;# 
    90     0004                     	;# 
    91     0005                     	;# 
    92     0006                     	;# 
    93     0007                     	;# 
    94     0008                     	;# 
    95     0009                     	;# 
    96     000A                     	;# 
    97     000B                     	;# 
    98     000C                     	;# 
    99     000D                     	;# 
   100     000E                     	;# 
   101     000E                     	;# 
   102     000F                     	;# 
   103     0010                     	;# 
   104     0011                     	;# 
   105     0012                     	;# 
   106     0013                     	;# 
   107     0014                     	;# 
   108     0015                     	;# 
   109     0015                     	;# 
   110     0016                     	;# 
   111     0017                     	;# 
   112     0018                     	;# 
   113     0019                     	;# 
   114     001A                     	;# 
   115     001B                     	;# 
   116     001B                     	;# 
   117     001C                     	;# 
   118     001D                     	;# 
   119     001E                     	;# 
   120     001F                     	;# 
   121     0081                     	;# 
   122     0085                     	;# 
   123     0086                     	;# 
   124     0087                     	;# 
   125     0088                     	;# 
   126     0089                     	;# 
   127     008C                     	;# 
   128     008D                     	;# 
   129     008E                     	;# 
   130     0091                     	;# 
   131     0092                     	;# 
   132     0093                     	;# 
   133     0094                     	;# 
   134     0098                     	;# 
   135     0099                     	;# 
   136     009C                     	;# 
   137     009D                     	;# 
   138     009E                     	;# 
   139     009F                     	;# 
   140     010C                     	;# 
   141     010D                     	;# 
   142     010E                     	;# 
   143     010F                     	;# 
   144     018C                     	;# 
   145     018D                     	;# 
   146     0000                     	;# 
   147     0001                     	;# 
   148     0002                     	;# 
   149     0003                     	;# 
   150     0004                     	;# 
   151     0005                     	;# 
   152     0006                     	;# 
   153     0007                     	;# 
   154     0008                     	;# 
   155     0009                     	;# 
   156     000A                     	;# 
   157     000B                     	;# 
   158     000C                     	;# 
   159     000D                     	;# 
   160     000E                     	;# 
   161     000E                     	;# 
   162     000F                     	;# 
   163     0010                     	;# 
   164     0011                     	;# 
   165     0012                     	;# 
   166     0013                     	;# 
   167     0014                     	;# 
   168     0015                     	;# 
   169     0015                     	;# 
   170     0016                     	;# 
   171     0017                     	;# 
   172     0018                     	;# 
   173     0019                     	;# 
   174     001A                     	;# 
   175     001B                     	;# 
   176     001B                     	;# 
   177     001C                     	;# 
   178     001D                     	;# 
   179     001E                     	;# 
   180     001F                     	;# 
   181     0081                     	;# 
   182     0085                     	;# 
   183     0086                     	;# 
   184     0087                     	;# 
   185     0088                     	;# 
   186     0089                     	;# 
   187     008C                     	;# 
   188     008D                     	;# 
   189     008E                     	;# 
   190     0091                     	;# 
   191     0092                     	;# 
   192     0093                     	;# 
   193     0094                     	;# 
   194     0098                     	;# 
   195     0099                     	;# 
   196     009C                     	;# 
   197     009D                     	;# 
   198     009E                     	;# 
   199     009F                     	;# 
   200     010C                     	;# 
   201     010D                     	;# 
   202     010E                     	;# 
   203     010F                     	;# 
   204     018C                     	;# 
   205     018D                     	;# 
   206     0000                     	;# 
   207     0001                     	;# 
   208     0002                     	;# 
   209     0003                     	;# 
   210     0004                     	;# 
   211     0005                     	;# 
   212     0006                     	;# 
   213     0007                     	;# 
   214     0008                     	;# 
   215     0009                     	;# 
   216     000A                     	;# 
   217     000B                     	;# 
   218     000C                     	;# 
   219     000D                     	;# 
   220     000E                     	;# 
   221     000E                     	;# 
   222     000F                     	;# 
   223     0010                     	;# 
   224     0011                     	;# 
   225     0012                     	;# 
   226     0013                     	;# 
   227     0014                     	;# 
   228     0015                     	;# 
   229     0015                     	;# 
   230     0016                     	;# 
   231     0017                     	;# 
   232     0018                     	;# 
   233     0019                     	;# 
   234     001A                     	;# 
   235     001B                     	;# 
   236     001B                     	;# 
   237     001C                     	;# 
   238     001D                     	;# 
   239     001E                     	;# 
   240     001F                     	;# 
   241     0081                     	;# 
   242     0085                     	;# 
   243     0086                     	;# 
   244     0087                     	;# 
   245     0088                     	;# 
   246     0089                     	;# 
   247     008C                     	;# 
   248     008D                     	;# 
   249     008E                     	;# 
   250     0091                     	;# 
   251     0092                     	;# 
   252     0093                     	;# 
   253     0094                     	;# 
   254     0098                     	;# 
   255     0099                     	;# 
   256     009C                     	;# 
   257     009D                     	;# 
   258     009E                     	;# 
   259     009F                     	;# 
   260     010C                     	;# 
   261     010D                     	;# 
   262     010E                     	;# 
   263     010F                     	;# 
   264     018C                     	;# 
   265     018D                     	;# 
   266     0000                     	;# 
   267     0001                     	;# 
   268     0002                     	;# 
   269     0003                     	;# 
   270     0004                     	;# 
   271     0005                     	;# 
   272     0006                     	;# 
   273     0007                     	;# 
   274     0008                     	;# 
   275     0009                     	;# 
   276     000A                     	;# 
   277     000B                     	;# 
   278     000C                     	;# 
   279     000D                     	;# 
   280     000E                     	;# 
   281     000E                     	;# 
   282     000F                     	;# 
   283     0010                     	;# 
   284     0011                     	;# 
   285     0012                     	;# 
   286     0013                     	;# 
   287     0014                     	;# 
   288     0015                     	;# 
   289     0015                     	;# 
   290     0016                     	;# 
   291     0017                     	;# 
   292     0018                     	;# 
   293     0019                     	;# 
   294     001A                     	;# 
   295     001B                     	;# 
   296     001B                     	;# 
   297     001C                     	;# 
   298     001D                     	;# 
   299     001E                     	;# 
   300     001F                     	;# 
   301     0081                     	;# 
   302     0085                     	;# 
   303     0086                     	;# 
   304     0087                     	;# 
   305     0088                     	;# 
   306     0089                     	;# 
   307     008C                     	;# 
   308     008D                     	;# 
   309     008E                     	;# 
   310     0091                     	;# 
   311     0092                     	;# 
   312     0093                     	;# 
   313     0094                     	;# 
   314     0098                     	;# 
   315     0099                     	;# 
   316     009C                     	;# 
   317     009D                     	;# 
   318     009E                     	;# 
   319     009F                     	;# 
   320     010C                     	;# 
   321     010D                     	;# 
   322     010E                     	;# 
   323     010F                     	;# 
   324     018C                     	;# 
   325     018D                     	;# 
   326     0000                     	;# 
   327     0001                     	;# 
   328     0002                     	;# 
   329     0003                     	;# 
   330     0004                     	;# 
   331     0005                     	;# 
   332     0006                     	;# 
   333     0007                     	;# 
   334     0008                     	;# 
   335     0009                     	;# 
   336     000A                     	;# 
   337     000B                     	;# 
   338     000C                     	;# 
   339     000D                     	;# 
   340     000E                     	;# 
   341     000E                     	;# 
   342     000F                     	;# 
   343     0010                     	;# 
   344     0011                     	;# 
   345     0012                     	;# 
   346     0013                     	;# 
   347     0014                     	;# 
   348     0015                     	;# 
   349     0015                     	;# 
   350     0016                     	;# 
   351     0017                     	;# 
   352     0018                     	;# 
   353     0019                     	;# 
   354     001A                     	;# 
   355     001B                     	;# 
   356     001B                     	;# 
   357     001C                     	;# 
   358     001D                     	;# 
   359     001E                     	;# 
   360     001F                     	;# 
   361     0081                     	;# 
   362     0085                     	;# 
   363     0086                     	;# 
   364     0087                     	;# 
   365     0088                     	;# 
   366     0089                     	;# 
   367     008C                     	;# 
   368     008D                     	;# 
   369     008E                     	;# 
   370     0091                     	;# 
   371     0092                     	;# 
   372     0093                     	;# 
   373     0094                     	;# 
   374     0098                     	;# 
   375     0099                     	;# 
   376     009C                     	;# 
   377     009D                     	;# 
   378     009E                     	;# 
   379     009F                     	;# 
   380     010C                     	;# 
   381     010D                     	;# 
   382     010E                     	;# 
   383     010F                     	;# 
   384     018C                     	;# 
   385     018D                     	;# 
   386     0000                     	;# 
   387     0001                     	;# 
   388     0002                     	;# 
   389     0003                     	;# 
   390     0004                     	;# 
   391     0005                     	;# 
   392     0006                     	;# 
   393     0007                     	;# 
   394     0008                     	;# 
   395     0009                     	;# 
   396     000A                     	;# 
   397     000B                     	;# 
   398     000C                     	;# 
   399     000D                     	;# 
   400     000E                     	;# 
   401     000E                     	;# 
   402     000F                     	;# 
   403     0010                     	;# 
   404     0011                     	;# 
   405     0012                     	;# 
   406     0013                     	;# 
   407     0014                     	;# 
   408     0015                     	;# 
   409     0015                     	;# 
   410     0016                     	;# 
   411     0017                     	;# 
   412     0018                     	;# 
   413     0019                     	;# 
   414     001A                     	;# 
   415     001B                     	;# 
   416     001B                     	;# 
   417     001C                     	;# 
   418     001D                     	;# 
   419     001E                     	;# 
   420     001F                     	;# 
   421     0081                     	;# 
   422     0085                     	;# 
   423     0086                     	;# 
   424     0087                     	;# 
   425     0088                     	;# 
   426     0089                     	;# 
   427     008C                     	;# 
   428     008D                     	;# 
   429     008E                     	;# 
   430     0091                     	;# 
   431     0092                     	;# 
   432     0093                     	;# 
   433     0094                     	;# 
   434     0098                     	;# 
   435     0099                     	;# 
   436     009C                     	;# 
   437     009D                     	;# 
   438     009E                     	;# 
   439     009F                     	;# 
   440     010C                     	;# 
   441     010D                     	;# 
   442     010E                     	;# 
   443     010F                     	;# 
   444     018C                     	;# 
   445     018D                     	;# 
   446                           
   447                           	psect	idataBANK0
   448     07FE                     __pidataBANK0:
   449                           
   450                           ;initializer for read_digital_keypad@once
   451     07FE  3401               	retlw	1
   452                           
   453                           	psect	idataBANK1
   454     155E                     __pidataBANK1:
   455                           
   456                           ;initializer for _washing_prog
   457     155E  3474               	retlw	low (STR_1| (0+32768))
   458     155F  3491               	retlw	high (STR_1| (0+32768))
   459     1560  347A               	retlw	low (STR_2| (0+32768))
   460     1561  3491               	retlw	high (STR_2| (0+32768))
   461     1562  340B               	retlw	low (STR_3| (0+32768))
   462     1563  3491               	retlw	high (STR_3| (0+32768))
   463     1564  345B               	retlw	low (STR_4| (0+32768))
   464     1565  3491               	retlw	high (STR_4| (0+32768))
   465     1566  34F5               	retlw	low (STR_5| (0+32768))
   466     1567  3490               	retlw	high (STR_5| (0+32768))
   467     1568  3400               	retlw	low (STR_6| (0+32768))
   468     1569  3491               	retlw	high (STR_6| (0+32768))
   469     156A  3433               	retlw	low (STR_7| (0+32768))
   470     156B  3491               	retlw	high (STR_7| (0+32768))
   471     156C  3415               	retlw	low (STR_8| (0+32768))
   472     156D  3491               	retlw	high (STR_8| (0+32768))
   473     156E  3429               	retlw	low (STR_9| (0+32768))
   474     156F  3491               	retlw	high (STR_9| (0+32768))
   475     1570  343C               	retlw	low (STR_10| (0+32768))
   476     1571  3491               	retlw	high (STR_10| (0+32768))
   477     1572  341F               	retlw	low (STR_11| (0+32768))
   478     1573  3491               	retlw	high (STR_11| (0+32768))
   479     1574  34EA               	retlw	low (STR_12| (0+32768))
   480     1575  3490               	retlw	high (STR_12| (0+32768))
   481                           
   482                           ;initializer for _water_level_arr
   483     1576  348F               	retlw	low (STR_13| (0+32768))
   484     1577  3491               	retlw	high (STR_13| (0+32768))
   485     1578  3494               	retlw	low (STR_14| (0+32768))
   486     1579  3491               	retlw	high (STR_14| (0+32768))
   487     157A  3454               	retlw	low (STR_15| (0+32768))
   488     157B  3491               	retlw	high (STR_15| (0+32768))
   489     157C  3485               	retlw	low (STR_16| (0+32768))
   490     157D  3491               	retlw	high (STR_16| (0+32768))
   491     157E  3498               	retlw	low (STR_17| (0+32768))
   492     157F  3491               	retlw	high (STR_17| (0+32768))
   493                           
   494                           	psect	nvBANK0
   495     006D                     __pnvBANK0:
   496     006D                     _operation_mode:
   497     006D                     	ds	1
   498                           
   499                           	psect	nvBANK1
   500     00C9                     __pnvBANK1:
   501     00C9                     _reset_mode:
   502     00C9                     	ds	1
   503     0006                     _PORTB	set	6
   504     0008                     _PORTD	set	8
   505     0091                     _T2CKPS1	set	145
   506     0090                     _T2CKPS0	set	144
   507     0039                     _RC1	set	57
   508     0030                     _RB0	set	48
   509     003A                     _RC2	set	58
   510     0092                     _TMR2ON	set	146
   511     005F                     _GIE	set	95
   512     005E                     _PEIE	set	94
   513     0061                     _TMR2IF	set	97
   514     0049                     _RE1	set	73
   515     004A                     _RE2	set	74
   516     0092                     _PR2	set	146
   517     0086                     _TRISB	set	134
   518     0088                     _TRISD	set	136
   519     0461                     _TMR2IE	set	1121
   520     0439                     _TRISC1	set	1081
   521     043A                     _TRISC2	set	1082
   522     0449                     _TRISE1	set	1097
   523     044A                     _TRISE2	set	1098
   524                           
   525                           	psect	strings
   526     119C                     __pstrings:
   527     119C                     stringtab:
   528     119C                     __stringtab:
   529                           
   530                           ;	String table - string pointers are 2 bytes each
   531     119C  1BFF               	btfsc	btemp+1,7
   532     119D  29A6               	ljmp	stringcode
   533     119E  1383               	bcf	3,7
   534     119F  187F               	btfsc	btemp+1,0
   535     11A0  1783               	bsf	3,7
   536     11A1  0800               	movf	0,w
   537     11A2  0A84               	incf	4,f
   538     11A3  1903               	skipnz
   539     11A4  0AFF               	incf	btemp+1,f
   540     11A5  0008               	return
   541     11A6                     stringcode:
   542     11A6  087F               	movf	btemp+1,w
   543     11A7  397F               	andlw	127
   544     11A8  008A               	movwf	10
   545     11A9  0804               	movf	4,w
   546     11AA  0A84               	incf	4,f
   547     11AB  1903               	skipnz
   548     11AC  0AFF               	incf	btemp+1,f
   549     11AD  0082               	movwf	2
   550     11AE                     __stringbase:
   551     11AE                     __end_of__stringtab:
   552                           
   553                           	psect	stringtext
   554     1000                     __pstringtext:
   555     1000                     STR_19:
   556     1000  3420               	retlw	32	;' '
   557     1001  3420               	retlw	32	;' '
   558     1002  3420               	retlw	32	;' '
   559     1003  3420               	retlw	32	;' '
   560     1004  3450               	retlw	80	;'P'
   561     1005  346F               	retlw	111	;'o'
   562     1006  3477               	retlw	119	;'w'
   563     1007  3465               	retlw	101	;'e'
   564     1008  3472               	retlw	114	;'r'
   565     1009  3420               	retlw	32	;' '
   566     100A  344F               	retlw	79	;'O'
   567     100B  344E               	retlw	78	;'N'
   568     100C  3420               	retlw	32	;' '
   569     100D  3420               	retlw	32	;' '
   570     100E  3420               	retlw	32	;' '
   571     100F  3420               	retlw	32	;' '
   572     1010  3400               	retlw	0
   573     1011                     STR_24:
   574     1011  3420               	retlw	32	;' '
   575     1012  3420               	retlw	32	;' '
   576     1013  3450               	retlw	80	;'P'
   577     1014  344F               	retlw	79	;'O'
   578     1015  3457               	retlw	87	;'W'
   579     1016  3445               	retlw	69	;'E'
   580     1017  3452               	retlw	82	;'R'
   581     1018  3449               	retlw	73	;'I'
   582     1019  344E               	retlw	78	;'N'
   583     101A  3447               	retlw	71	;'G'
   584     101B  3420               	retlw	32	;' '
   585     101C  344F               	retlw	79	;'O'
   586     101D  344E               	retlw	78	;'N'
   587     101E  3420               	retlw	32	;' '
   588     101F  3420               	retlw	32	;' '
   589     1020  3420               	retlw	32	;' '
   590     1021  3400               	retlw	0
   591     1022                     STR_18:
   592     1022  3420               	retlw	32	;' '
   593     1023  3450               	retlw	80	;'P'
   594     1024  3472               	retlw	114	;'r'
   595     1025  3465               	retlw	101	;'e'
   596     1026  3473               	retlw	115	;'s'
   597     1027  3473               	retlw	115	;'s'
   598     1028  3420               	retlw	32	;' '
   599     1029  344B               	retlw	75	;'K'
   600     102A  3465               	retlw	101	;'e'
   601     102B  3479               	retlw	121	;'y'
   602     102C  3435               	retlw	53	;'5'
   603     102D  3420               	retlw	32	;' '
   604     102E  3454               	retlw	84	;'T'
   605     102F  346F               	retlw	111	;'o'
   606     1030  3420               	retlw	32	;' '
   607     1031  3420               	retlw	32	;' '
   608     1032  3400               	retlw	0
   609     1033                     STR_25:
   610     1033  3420               	retlw	32	;' '
   611     1034  3457               	retlw	87	;'W'
   612     1035  3441               	retlw	65	;'A'
   613     1036  3453               	retlw	83	;'S'
   614     1037  3448               	retlw	72	;'H'
   615     1038  3449               	retlw	73	;'I'
   616     1039  344E               	retlw	78	;'N'
   617     103A  3447               	retlw	71	;'G'
   618     103B  3420               	retlw	32	;' '
   619     103C  344D               	retlw	77	;'M'
   620     103D  3441               	retlw	65	;'A'
   621     103E  3443               	retlw	67	;'C'
   622     103F  3448               	retlw	72	;'H'
   623     1040  3449               	retlw	73	;'I'
   624     1041  344E               	retlw	78	;'N'
   625     1042  3445               	retlw	69	;'E'
   626     1043  3400               	retlw	0
   627     1044                     STR_32:
   628     1044  3435               	retlw	53	;'5'
   629     1045  342D               	retlw	45	;'-'
   630     1046  3453               	retlw	83	;'S'
   631     1047  3454               	retlw	84	;'T'
   632     1048  3441               	retlw	65	;'A'
   633     1049  3452               	retlw	82	;'R'
   634     104A  3454               	retlw	84	;'T'
   635     104B  3420               	retlw	32	;' '
   636     104C  3420               	retlw	32	;' '
   637     104D  3436               	retlw	54	;'6'
   638     104E  342D               	retlw	45	;'-'
   639     104F  3450               	retlw	80	;'P'
   640     1050  3441               	retlw	65	;'A'
   641     1051  3455               	retlw	85	;'U'
   642     1052  3453               	retlw	83	;'S'
   643     1053  3445               	retlw	69	;'E'
   644     1054  3400               	retlw	0
   645     1055                     STR_20:
   646     1055  3420               	retlw	32	;' '
   647     1056  3457               	retlw	87	;'W'
   648     1057  3461               	retlw	97	;'a'
   649     1058  3473               	retlw	115	;'s'
   650     1059  3468               	retlw	104	;'h'
   651     105A  3469               	retlw	105	;'i'
   652     105B  346E               	retlw	110	;'n'
   653     105C  3467               	retlw	103	;'g'
   654     105D  3420               	retlw	32	;' '
   655     105E  344D               	retlw	77	;'M'
   656     105F  3461               	retlw	97	;'a'
   657     1060  3463               	retlw	99	;'c'
   658     1061  3468               	retlw	104	;'h'
   659     1062  3469               	retlw	105	;'i'
   660     1063  346E               	retlw	110	;'n'
   661     1064  3465               	retlw	101	;'e'
   662     1065  3400               	retlw	0
   663     1066                     STR_46:
   664     1066  3450               	retlw	80	;'P'
   665     1067  3472               	retlw	114	;'r'
   666     1068  346F               	retlw	111	;'o'
   667     1069  3467               	retlw	103	;'g'
   668     106A  342E               	retlw	46	;'.'
   669     106B  3420               	retlw	32	;' '
   670     106C  3443               	retlw	67	;'C'
   671     106D  346F               	retlw	111	;'o'
   672     106E  346D               	retlw	109	;'m'
   673     106F  3470               	retlw	112	;'p'
   674     1070  346C               	retlw	108	;'l'
   675     1071  3465               	retlw	101	;'e'
   676     1072  3474               	retlw	116	;'t'
   677     1073  3465               	retlw	101	;'e'
   678     1074  3464               	retlw	100	;'d'
   679     1075  3400               	retlw	0
   680     1076                     STR_26:
   681     1076  3457               	retlw	87	;'W'
   682     1077  3461               	retlw	97	;'a'
   683     1078  3473               	retlw	115	;'s'
   684     1079  3468               	retlw	104	;'h'
   685     107A  3469               	retlw	105	;'i'
   686     107B  346E               	retlw	110	;'n'
   687     107C  3467               	retlw	103	;'g'
   688     107D  3420               	retlw	32	;' '
   689     107E  3450               	retlw	80	;'P'
   690     107F  3472               	retlw	114	;'r'
   691     1080  346F               	retlw	111	;'o'
   692     1081  3467               	retlw	103	;'g'
   693     1082  3472               	retlw	114	;'r'
   694     1083  3461               	retlw	97	;'a'
   695     1084  346D               	retlw	109	;'m'
   696     1085  3400               	retlw	0
   697     1086                     STR_47:
   698     1086  3452               	retlw	82	;'R'
   699     1087  3465               	retlw	101	;'e'
   700     1088  346D               	retlw	109	;'m'
   701     1089  346F               	retlw	111	;'o'
   702     108A  3476               	retlw	118	;'v'
   703     108B  3465               	retlw	101	;'e'
   704     108C  3420               	retlw	32	;' '
   705     108D  3443               	retlw	67	;'C'
   706     108E  346C               	retlw	108	;'l'
   707     108F  346F               	retlw	111	;'o'
   708     1090  3474               	retlw	116	;'t'
   709     1091  3468               	retlw	104	;'h'
   710     1092  3473               	retlw	115	;'s'
   711     1093  3400               	retlw	0
   712     1094                     STR_22:
   713     1094  3420               	retlw	32	;' '
   714     1095  3453               	retlw	83	;'S'
   715     1096  3457               	retlw	87	;'W'
   716     1097  3435               	retlw	53	;'5'
   717     1098  343A               	retlw	58	;':'
   718     1099  3420               	retlw	32	;' '
   719     109A  3453               	retlw	83	;'S'
   720     109B  3454               	retlw	84	;'T'
   721     109C  3441               	retlw	65	;'A'
   722     109D  3452               	retlw	82	;'R'
   723     109E  3454               	retlw	84	;'T'
   724     109F  3420               	retlw	32	;' '
   725     10A0  3400               	retlw	0
   726     10A1                     STR_29:
   727     10A1  3450               	retlw	80	;'P'
   728     10A2  346C               	retlw	108	;'l'
   729     10A3  3465               	retlw	101	;'e'
   730     10A4  3461               	retlw	97	;'a'
   731     10A5  3473               	retlw	115	;'s'
   732     10A6  3465               	retlw	101	;'e'
   733     10A7  3420               	retlw	32	;' '
   734     10A8  3443               	retlw	67	;'C'
   735     10A9  346C               	retlw	108	;'l'
   736     10AA  346F               	retlw	111	;'o'
   737     10AB  3473               	retlw	115	;'s'
   738     10AC  3465               	retlw	101	;'e'
   739     10AD  3400               	retlw	0
   740     10AE                     STR_21:
   741     10AE  3450               	retlw	80	;'P'
   742     10AF  3472               	retlw	114	;'r'
   743     10B0  3465               	retlw	101	;'e'
   744     10B1  3473               	retlw	115	;'s'
   745     10B2  3473               	retlw	115	;'s'
   746     10B3  3420               	retlw	32	;' '
   747     10B4  3453               	retlw	83	;'S'
   748     10B5  3477               	retlw	119	;'w'
   749     10B6  3469               	retlw	105	;'i'
   750     10B7  3474               	retlw	116	;'t'
   751     10B8  3463               	retlw	99	;'c'
   752     10B9  3468               	retlw	104	;'h'
   753     10BA  3400               	retlw	0
   754     10BB                     STR_23:
   755     10BB  3420               	retlw	32	;' '
   756     10BC  3453               	retlw	83	;'S'
   757     10BD  3457               	retlw	87	;'W'
   758     10BE  3436               	retlw	54	;'6'
   759     10BF  343A               	retlw	58	;':'
   760     10C0  3420               	retlw	32	;' '
   761     10C1  3453               	retlw	83	;'S'
   762     10C2  3454               	retlw	84	;'T'
   763     10C3  344F               	retlw	79	;'O'
   764     10C4  3450               	retlw	80	;'P'
   765     10C5  3420               	retlw	32	;' '
   766     10C6  3400               	retlw	0
   767     10C7                     STR_28:
   768     10C7  3444               	retlw	68	;'D'
   769     10C8  344F               	retlw	79	;'O'
   770     10C9  344F               	retlw	79	;'O'
   771     10CA  3452               	retlw	82	;'R'
   772     10CB  3420               	retlw	32	;' '
   773     10CC  343A               	retlw	58	;':'
   774     10CD  3420               	retlw	32	;' '
   775     10CE  344F               	retlw	79	;'O'
   776     10CF  3450               	retlw	80	;'P'
   777     10D0  3445               	retlw	69	;'E'
   778     10D1  344E               	retlw	78	;'N'
   779     10D2  3400               	retlw	0
   780     10D3                     STR_27:
   781     10D3  3457               	retlw	87	;'W'
   782     10D4  3461               	retlw	97	;'a'
   783     10D5  3474               	retlw	116	;'t'
   784     10D6  3465               	retlw	101	;'e'
   785     10D7  3472               	retlw	114	;'r'
   786     10D8  3420               	retlw	32	;' '
   787     10D9  344C               	retlw	76	;'L'
   788     10DA  3465               	retlw	101	;'e'
   789     10DB  3476               	retlw	118	;'v'
   790     10DC  3465               	retlw	101	;'e'
   791     10DD  346C               	retlw	108	;'l'
   792     10DE  3400               	retlw	0
   793     10DF                     STR_30:
   794     10DF  3446               	retlw	70	;'F'
   795     10E0  3475               	retlw	117	;'u'
   796     10E1  346E               	retlw	110	;'n'
   797     10E2  3463               	retlw	99	;'c'
   798     10E3  3474               	retlw	116	;'t'
   799     10E4  3469               	retlw	105	;'i'
   800     10E5  346F               	retlw	111	;'o'
   801     10E6  346E               	retlw	110	;'n'
   802     10E7  3420               	retlw	32	;' '
   803     10E8  342D               	retlw	45	;'-'
   804     10E9  3400               	retlw	0
   805     10EA                     STR_12:
   806     10EA  3441               	retlw	65	;'A'
   807     10EB  3471               	retlw	113	;'q'
   808     10EC  3475               	retlw	117	;'u'
   809     10ED  3461               	retlw	97	;'a'
   810     10EE  3420               	retlw	32	;' '
   811     10EF  3473               	retlw	115	;'s'
   812     10F0  3474               	retlw	116	;'t'
   813     10F1  346F               	retlw	111	;'o'
   814     10F2  3472               	retlw	114	;'r'
   815     10F3  3465               	retlw	101	;'e'
   816     10F4  3400               	retlw	0
   817     10F5                     STR_5:
   818     10F5  3473               	retlw	115	;'s'
   819     10F6  3474               	retlw	116	;'t'
   820     10F7  3461               	retlw	97	;'a'
   821     10F8  3469               	retlw	105	;'i'
   822     10F9  346E               	retlw	110	;'n'
   823     10FA  3420               	retlw	32	;' '
   824     10FB  3477               	retlw	119	;'w'
   825     10FC  3461               	retlw	97	;'a'
   826     10FD  3473               	retlw	115	;'s'
   827     10FE  3468               	retlw	104	;'h'
   828     10FF  3400               	retlw	0
   829     1100                     STR_6:
   830     1100  3445               	retlw	69	;'E'
   831     1101  3463               	retlw	99	;'c'
   832     1102  346F               	retlw	111	;'o'
   833     1103  3443               	retlw	67	;'C'
   834     1104  346F               	retlw	111	;'o'
   835     1105  3474               	retlw	116	;'t'
   836     1106  3474               	retlw	116	;'t'
   837     1107  346F               	retlw	111	;'o'
   838     1108  346E               	retlw	110	;'n'
   839     1109  3473               	retlw	115	;'s'
   840     110A  3400               	retlw	0
   841     110B                     STR_3:
   842     110B  3444               	retlw	68	;'D'
   843     110C  3465               	retlw	101	;'e'
   844     110D  346C               	retlw	108	;'l'
   845     110E  3469               	retlw	105	;'i'
   846     110F  3463               	retlw	99	;'c'
   847     1110  3461               	retlw	97	;'a'
   848     1111  3474               	retlw	116	;'t'
   849     1112  3465               	retlw	101	;'e'
   850     1113  3473               	retlw	115	;'s'
   851     1114  3400               	retlw	0
   852     1115                     STR_8:
   853     1115  3442               	retlw	66	;'B'
   854     1116  3465               	retlw	101	;'e'
   855     1117  3464               	retlw	100	;'d'
   856     1118  3453               	retlw	83	;'S'
   857     1119  3468               	retlw	104	;'h'
   858     111A  3465               	retlw	101	;'e'
   859     111B  3465               	retlw	101	;'e'
   860     111C  3474               	retlw	116	;'t'
   861     111D  3473               	retlw	115	;'s'
   862     111E  3400               	retlw	0
   863     111F                     STR_11:
   864     111F  3457               	retlw	87	;'W'
   865     1120  3461               	retlw	97	;'a'
   866     1121  3473               	retlw	115	;'s'
   867     1122  3468               	retlw	104	;'h'
   868     1123  3420               	retlw	32	;' '
   869     1124  344F               	retlw	79	;'O'
   870     1125  346E               	retlw	110	;'n'
   871     1126  346C               	retlw	108	;'l'
   872     1127  3479               	retlw	121	;'y'
   873     1128  3400               	retlw	0
   874     1129                     STR_9:
   875     1129  3452               	retlw	82	;'R'
   876     112A  3469               	retlw	105	;'i'
   877     112B  346E               	retlw	110	;'n'
   878     112C  3473               	retlw	115	;'s'
   879     112D  3465               	retlw	101	;'e'
   880     112E  342B               	retlw	43	;'+'
   881     112F  3444               	retlw	68	;'D'
   882     1130  3472               	retlw	114	;'r'
   883     1131  3479               	retlw	121	;'y'
   884     1132  3400               	retlw	0
   885     1133                     STR_7:
   886     1133  3457               	retlw	87	;'W'
   887     1134  346F               	retlw	111	;'o'
   888     1135  346F               	retlw	111	;'o'
   889     1136  344C               	retlw	76	;'L'
   890     1137  346C               	retlw	108	;'l'
   891     1138  3465               	retlw	101	;'e'
   892     1139  346E               	retlw	110	;'n'
   893     113A  3473               	retlw	115	;'s'
   894     113B  3400               	retlw	0
   895     113C                     STR_10:
   896     113C  3444               	retlw	68	;'D'
   897     113D  3472               	retlw	114	;'r'
   898     113E  3479               	retlw	121	;'y'
   899     113F  3420               	retlw	32	;' '
   900     1140  346F               	retlw	111	;'o'
   901     1141  346E               	retlw	110	;'n'
   902     1142  346C               	retlw	108	;'l'
   903     1143  3479               	retlw	121	;'y'
   904     1144  3400               	retlw	0
   905     1145                     STR_35:
   906     1145  3428               	retlw	40	;'('
   907     1146  344D               	retlw	77	;'M'
   908     1147  344D               	retlw	77	;'M'
   909     1148  343A               	retlw	58	;':'
   910     1149  3453               	retlw	83	;'S'
   911     114A  3453               	retlw	83	;'S'
   912     114B  3429               	retlw	41	;')'
   913     114C  3400               	retlw	0
   914     114D                     STR_33:
   915     114D  3450               	retlw	80	;'P'
   916     114E  3472               	retlw	114	;'r'
   917     114F  346F               	retlw	111	;'o'
   918     1150  3467               	retlw	103	;'g'
   919     1151  343A               	retlw	58	;':'
   920     1152  3420               	retlw	32	;' '
   921     1153  3400               	retlw	0
   922     1154                     STR_15:
   923     1154  344D               	retlw	77	;'M'
   924     1155  3465               	retlw	101	;'e'
   925     1156  3464               	retlw	100	;'d'
   926     1157  3469               	retlw	105	;'i'
   927     1158  3475               	retlw	117	;'u'
   928     1159  346D               	retlw	109	;'m'
   929     115A  3400               	retlw	0
   930     115B                     STR_4:
   931     115B  3457               	retlw	87	;'W'
   932     115C  3468               	retlw	104	;'h'
   933     115D  3469               	retlw	105	;'i'
   934     115E  3474               	retlw	116	;'t'
   935     115F  3465               	retlw	101	;'e'
   936     1160  3473               	retlw	115	;'s'
   937     1161  3400               	retlw	0
   938     1162                     STR_41:
   939     1162  3453               	retlw	83	;'S'
   940     1163  3470               	retlw	112	;'p'
   941     1164  3469               	retlw	105	;'i'
   942     1165  346E               	retlw	110	;'n'
   943     1166  3420               	retlw	32	;' '
   944     1167  3400               	retlw	0
   945     1168                     STR_34:
   946     1168  3454               	retlw	84	;'T'
   947     1169  3469               	retlw	105	;'i'
   948     116A  346D               	retlw	109	;'m'
   949     116B  3465               	retlw	101	;'e'
   950     116C  343A               	retlw	58	;':'
   951     116D  3400               	retlw	0
   952     116E                     STR_40:
   953     116E  3452               	retlw	82	;'R'
   954     116F  3469               	retlw	105	;'i'
   955     1170  346E               	retlw	110	;'n'
   956     1171  3473               	retlw	115	;'s'
   957     1172  3465               	retlw	101	;'e'
   958     1173  3400               	retlw	0
   959     1174                     STR_1:
   960     1174  3444               	retlw	68	;'D'
   961     1175  3461               	retlw	97	;'a'
   962     1176  3469               	retlw	105	;'i'
   963     1177  346C               	retlw	108	;'l'
   964     1178  3479               	retlw	121	;'y'
   965     1179  3400               	retlw	0
   966     117A                     STR_2:
   967     117A  3448               	retlw	72	;'H'
   968     117B  3465               	retlw	101	;'e'
   969     117C  3461               	retlw	97	;'a'
   970     117D  3476               	retlw	118	;'v'
   971     117E  3479               	retlw	121	;'y'
   972     117F  3400               	retlw	0
   973     1180                     STR_31:
   974     1180  3454               	retlw	84	;'T'
   975     1181  3449               	retlw	73	;'I'
   976     1182  344D               	retlw	77	;'M'
   977     1183  3445               	retlw	69	;'E'
   978     1184  3400               	retlw	0
   979     1185                     STR_16:
   980     1185  3448               	retlw	72	;'H'
   981     1186  3469               	retlw	105	;'i'
   982     1187  3467               	retlw	103	;'g'
   983     1188  3468               	retlw	104	;'h'
   984     1189  3400               	retlw	0
   985     118A                     STR_39:
   986     118A  3457               	retlw	87	;'W'
   987     118B  3461               	retlw	97	;'a'
   988     118C  3473               	retlw	115	;'s'
   989     118D  3468               	retlw	104	;'h'
   990     118E  3400               	retlw	0
   991     118F                     STR_13:
   992     118F  3441               	retlw	65	;'A'
   993     1190  3475               	retlw	117	;'u'
   994     1191  3474               	retlw	116	;'t'
   995     1192  346F               	retlw	111	;'o'
   996     1193  3400               	retlw	0
   997     1194                     STR_14:
   998     1194  344C               	retlw	76	;'L'
   999     1195  346F               	retlw	111	;'o'
  1000     1196  3477               	retlw	119	;'w'
  1001     1197  3400               	retlw	0
  1002     1198                     STR_17:
  1003     1198  344D               	retlw	77	;'M'
  1004     1199  3461               	retlw	97	;'a'
  1005     119A  3478               	retlw	120	;'x'
  1006     119B  3400               	retlw	0
  1007     1162                     
  1008                           	psect	cinit
  1009     000F                     start_initialization:	
  1010                           ; #config settings
  1011                           
  1012     000F                     __initialization:
  1013                           
  1014                           ; Initialize objects allocated to BANK1
  1015     000F  1383               	bcf	3,7	;select IRP bank0
  1016     0010  30C2               	movlw	low (__pdataBANK1+34)
  1017     0011  00FD               	movwf	btemp+-1
  1018     0012  3015               	movlw	high __pidataBANK1
  1019     0013  00FE               	movwf	btemp
  1020     0014  305E               	movlw	low __pidataBANK1
  1021     0015  00FF               	movwf	btemp+1
  1022     0016  30A0               	movlw	low __pdataBANK1
  1023     0017  0084               	movwf	4
  1024     0018  160A  118A  252F  120A  118A  	fcall	init_ram0
  1025                           
  1026                           ; Initialize objects allocated to BANK0
  1027     001D  120A  118A  27FE  120A  118A  	fcall	__pidataBANK0	;fetch initializer
  1028     0022  00EE               	movwf	__pdataBANK0& (0+127)
  1029                           
  1030                           ; Clear objects allocated to BANK1
  1031     0023  1683               	bsf	3,5	;RP0=1, select bank1
  1032     0024  1303               	bcf	3,6	;RP1=0, select bank1
  1033     0025  01C7               	clrf	__pbssBANK1& (0+127)
  1034     0026  01C8               	clrf	(__pbssBANK1+1)& (0+127)
  1035                           
  1036                           ; Clear objects allocated to BANK0
  1037     0027  1283               	bcf	3,5	;RP0=0, select bank0
  1038     0028  1303               	bcf	3,6	;RP1=0, select bank0
  1039     0029  01E0               	clrf	__pbssBANK0& (0+127)
  1040     002A  01E1               	clrf	(__pbssBANK0+1)& (0+127)
  1041     002B  01E2               	clrf	(__pbssBANK0+2)& (0+127)
  1042     002C  01E3               	clrf	(__pbssBANK0+3)& (0+127)
  1043     002D  01E4               	clrf	(__pbssBANK0+4)& (0+127)
  1044     002E  01E5               	clrf	(__pbssBANK0+5)& (0+127)
  1045     002F  01E6               	clrf	(__pbssBANK0+6)& (0+127)
  1046     0030  01E7               	clrf	(__pbssBANK0+7)& (0+127)
  1047     0031  01E8               	clrf	(__pbssBANK0+8)& (0+127)
  1048     0032  01E9               	clrf	(__pbssBANK0+9)& (0+127)
  1049     0033  01EA               	clrf	(__pbssBANK0+10)& (0+127)
  1050     0034  01EB               	clrf	(__pbssBANK0+11)& (0+127)
  1051     0035  01EC               	clrf	(__pbssBANK0+12)& (0+127)
  1052                           
  1053                           ; Clear objects allocated to COMMON
  1054     0036  01F9               	clrf	__pbssCOMMON& (0+127)
  1055     0037  01FA               	clrf	(__pbssCOMMON+1)& (0+127)
  1056     0038  01FB               	clrf	(__pbssCOMMON+2)& (0+127)
  1057     0039                     end_of_initialization:	
  1058                           ;End of C runtime variable initialization code
  1059                           
  1060     0039                     __end_of__initialization:
  1061     0039  0183               	clrf	3
  1062     003A  120A  158A  2C72   	ljmp	_main	;jump to C main() function
  1063                           
  1064                           	psect	bssCOMMON
  1065     0079                     __pbssCOMMON:
  1066     0079                     _water_level_index:
  1067     0079                     	ds	1
  1068     007A                     _program_no:
  1069     007A                     	ds	1
  1070     007B                     _sec:
  1071     007B                     	ds	1
  1072                           
  1073                           	psect	bssBANK0
  1074     0060                     __pbssBANK0:
  1075     0060                     run_program@time:
  1076     0060                     	ds	2
  1077     0062                     run_program@total_time:
  1078     0062                     	ds	2
  1079     0064                     _rinse_time:
  1080     0064                     	ds	2
  1081     0066                     _wash_time:
  1082     0066                     	ds	2
  1083     0068                     isr@count:
  1084     0068                     	ds	2
  1085     006A                     _min:
  1086     006A                     	ds	1
  1087     006B                     read_digital_keypad@longpress:
  1088     006B                     	ds	1
  1089     006C                     read_digital_keypad@pre_key:
  1090     006C                     	ds	1
  1091                           
  1092                           	psect	dataBANK0
  1093     006E                     __pdataBANK0:
  1094     006E                     read_digital_keypad@once:
  1095     006E                     	ds	1
  1096                           
  1097                           	psect	bssBANK1
  1098     00C7                     __pbssBANK1:
  1099     00C7                     _spin_time:
  1100     00C7                     	ds	2
  1101                           
  1102                           	psect	dataBANK1
  1103     00A0                     __pdataBANK1:
  1104     00A0                     _washing_prog:
  1105     00A0                     	ds	24
  1106     00B8                     _water_level_arr:
  1107     00B8                     	ds	10
  1108                           
  1109                           	psect	inittext
  1110     152B                     init_fetch0:	
  1111                           ;	Called with low address in FSR and high address in W
  1112                           
  1113     152B  087E               	movf	btemp,w
  1114     152C  008A               	movwf	10
  1115     152D  087F               	movf	btemp+1,w
  1116     152E  0082               	movwf	2
  1117     152F                     init_ram0:	
  1118                           ;Called with:
  1119                           ;	high address of idata address in btemp 
  1120                           ;	low address of idata address in btemp+1 
  1121                           ;	low address of data in FSR
  1122                           ;	high address + 1 of data in btemp-1
  1123                           
  1124     152F  160A  118A  252B  160A  118A  	fcall	init_fetch0
  1125     1534  0080               	movwf	0
  1126     1535  0A84               	incf	4,f
  1127     1536  0804               	movf	4,w
  1128     1537  067D               	xorwf	btemp+-1,w
  1129     1538  1903               	btfsc	3,2
  1130     1539  3400               	retlw	0
  1131     153A  0AFF               	incf	btemp+1,f
  1132     153B  1903               	btfsc	3,2
  1133     153C  0AFE               	incf	btemp,f
  1134     153D  2D2F               	goto	init_ram0
  1135                           
  1136                           	psect	cstackBANK1
  1137     00C2                     __pcstackBANK1:
  1138     00C2                     main@j:
  1139                           
  1140                           ; 2 bytes @ 0x0
  1141     00C2                     	ds	2
  1142     00C4                     main@j_156:
  1143                           
  1144                           ; 2 bytes @ 0x2
  1145     00C4                     	ds	2
  1146     00C6                     main@key:
  1147                           
  1148                           ; 1 bytes @ 0x4
  1149     00C6                     	ds	1
  1150                           
  1151                           	psect	cstackCOMMON
  1152     0070                     __pcstackCOMMON:
  1153     0070                     ?_init_timer2:
  1154     0070                     ?_clear_screen:	
  1155                           ; 1 bytes @ 0x0
  1156                           
  1157     0070                     ?_power_on_screen:	
  1158                           ; 1 bytes @ 0x0
  1159                           
  1160     0070                     ?_set_time_for_program:	
  1161                           ; 1 bytes @ 0x0
  1162                           
  1163     0070                     ?_washing_program_display:	
  1164                           ; 1 bytes @ 0x0
  1165                           
  1166     0070                     ?_water_level_display:	
  1167                           ; 1 bytes @ 0x0
  1168                           
  1169     0070                     ?_run_program:	
  1170                           ; 1 bytes @ 0x0
  1171                           
  1172     0070                     ?_init_display_controller:	
  1173                           ; 1 bytes @ 0x0
  1174                           
  1175     0070                     ?_init_clcd:	
  1176                           ; 1 bytes @ 0x0
  1177                           
  1178     0070                     ?_init_digital_keypad:	
  1179                           ; 1 bytes @ 0x0
  1180                           
  1181     0070                     ?_read_digital_keypad:	
  1182                           ; 1 bytes @ 0x0
  1183                           
  1184     0070                     ?_isr:	
  1185                           ; 1 bytes @ 0x0
  1186                           
  1187     0070                     ??_isr:	
  1188                           ; 1 bytes @ 0x0
  1189                           
  1190     0070                     ?_init_config:	
  1191                           ; 1 bytes @ 0x0
  1192                           
  1193     0070                     ?_main:	
  1194                           ; 1 bytes @ 0x0
  1195                           
  1196     0070                     ?_door_status_check:	
  1197                           ; 1 bytes @ 0x0
  1198                           
  1199                           
  1200                           ; 1 bytes @ 0x0
  1201     0070                     	ds	2
  1202     0072                     ??_init_timer2:
  1203     0072                     ??_set_time_for_program:	
  1204                           ; 1 bytes @ 0x2
  1205                           
  1206     0072                     ?_clcd_write:	
  1207                           ; 1 bytes @ 0x2
  1208                           
  1209     0072                     ??_init_digital_keypad:	
  1210                           ; 1 bytes @ 0x2
  1211                           
  1212     0072                     ??_read_digital_keypad:	
  1213                           ; 1 bytes @ 0x2
  1214                           
  1215     0072                     ?__Umul8_16:	
  1216                           ; 1 bytes @ 0x2
  1217                           
  1218     0072                     ?___wmul:	
  1219                           ; 2 bytes @ 0x2
  1220                           
  1221     0072                     ?___awdiv:	
  1222                           ; 2 bytes @ 0x2
  1223                           
  1224     0072                     ?___awmod:	
  1225                           ; 2 bytes @ 0x2
  1226                           
  1227     0072                     ?___xxtofl:	
  1228                           ; 2 bytes @ 0x2
  1229                           
  1230     0072                     clcd_write@mode:	
  1231                           ; 4 bytes @ 0x2
  1232                           
  1233     0072                     ___fladd@signs:	
  1234                           ; 1 bytes @ 0x2
  1235                           
  1236     0072                     __Umul8_16@multiplicand:	
  1237                           ; 1 bytes @ 0x2
  1238                           
  1239     0072                     ___wmul@multiplier:	
  1240                           ; 1 bytes @ 0x2
  1241                           
  1242     0072                     ___awdiv@divisor:	
  1243                           ; 2 bytes @ 0x2
  1244                           
  1245     0072                     ___awmod@divisor:	
  1246                           ; 2 bytes @ 0x2
  1247                           
  1248     0072                     ___xxtofl@val:	
  1249                           ; 2 bytes @ 0x2
  1250                           
  1251                           
  1252                           ; 4 bytes @ 0x2
  1253     0072                     	ds	1
  1254     0073                     ??_clcd_write:
  1255     0073                     read_digital_keypad@mode:	
  1256                           ; 1 bytes @ 0x3
  1257                           
  1258     0073                     ___fladd@aexp:	
  1259                           ; 1 bytes @ 0x3
  1260                           
  1261                           
  1262                           ; 1 bytes @ 0x3
  1263     0073                     	ds	1
  1264     0074                     ??__Umul8_16:
  1265     0074                     ___fladd@bexp:	
  1266                           ; 1 bytes @ 0x4
  1267                           
  1268     0074                     ___wmul@multiplicand:	
  1269                           ; 1 bytes @ 0x4
  1270                           
  1271     0074                     ___awdiv@dividend:	
  1272                           ; 2 bytes @ 0x4
  1273                           
  1274     0074                     ___awmod@dividend:	
  1275                           ; 2 bytes @ 0x4
  1276                           
  1277                           
  1278                           ; 2 bytes @ 0x4
  1279     0074                     	ds	1
  1280     0075                     clcd_write@byte:
  1281     0075                     ___fladd@grs:	
  1282                           ; 1 bytes @ 0x5
  1283                           
  1284                           
  1285                           ; 1 bytes @ 0x5
  1286     0075                     	ds	1
  1287     0076                     ??_clear_screen:
  1288     0076                     ??_init_display_controller:	
  1289                           ; 1 bytes @ 0x6
  1290                           
  1291     0076                     ?_clcd_print:	
  1292                           ; 1 bytes @ 0x6
  1293                           
  1294     0076                     ??___wmul:	
  1295                           ; 1 bytes @ 0x6
  1296                           
  1297     0076                     ??___awdiv:	
  1298                           ; 1 bytes @ 0x6
  1299                           
  1300     0076                     ??___awmod:	
  1301                           ; 1 bytes @ 0x6
  1302                           
  1303     0076                     ??___flsub:	
  1304                           ; 1 bytes @ 0x6
  1305                           
  1306     0076                     ___awmod@counter:	
  1307                           ; 1 bytes @ 0x6
  1308                           
  1309     0076                     ___fltol@sign1:	
  1310                           ; 1 bytes @ 0x6
  1311                           
  1312     0076                     clcd_print@str:	
  1313                           ; 1 bytes @ 0x6
  1314                           
  1315     0076                     ___wmul@product:	
  1316                           ; 2 bytes @ 0x6
  1317                           
  1318                           
  1319                           ; 2 bytes @ 0x6
  1320     0076                     	ds	1
  1321     0077                     ___awmod@sign:
  1322     0077                     ___fltol@exp1:	
  1323                           ; 1 bytes @ 0x7
  1324                           
  1325                           
  1326                           ; 1 bytes @ 0x7
  1327     0077                     	ds	1
  1328     0078                     ??_init_clcd:
  1329     0078                     ?_clcd_putch:	
  1330                           ; 1 bytes @ 0x8
  1331                           
  1332     0078                     ??_init_config:	
  1333                           ; 1 bytes @ 0x8
  1334                           
  1335     0078                     clcd_putch@addr:	
  1336                           ; 1 bytes @ 0x8
  1337                           
  1338     0078                     clcd_print@addr:	
  1339                           ; 1 bytes @ 0x8
  1340                           
  1341                           
  1342                           ; 1 bytes @ 0x8
  1343     0078                     	ds	1
  1344     0079                     ??_clcd_putch:
  1345     0079                     ??_clcd_print:	
  1346                           ; 1 bytes @ 0x9
  1347                           
  1348     0079                     ??_main:	
  1349                           ; 1 bytes @ 0x9
  1350                           
  1351     0079                     ??_door_status_check:	
  1352                           ; 1 bytes @ 0x9
  1353                           
  1354                           
  1355                           	psect	cstackBANK0
  1356     0020                     __pcstackBANK0:	
  1357                           ; 1 bytes @ 0x9
  1358                           
  1359     0020                     ??___xxtofl:
  1360     0020                     ?___fladd:	
  1361                           ; 1 bytes @ 0x0
  1362                           
  1363     0020                     ___awdiv@counter:	
  1364                           ; 4 bytes @ 0x0
  1365                           
  1366     0020                     __Umul8_16@product:	
  1367                           ; 1 bytes @ 0x0
  1368                           
  1369     0020                     ___fladd@b:	
  1370                           ; 2 bytes @ 0x0
  1371                           
  1372                           
  1373                           ; 4 bytes @ 0x0
  1374     0020                     	ds	1
  1375     0021                     ___awdiv@sign:
  1376                           
  1377                           ; 1 bytes @ 0x1
  1378     0021                     	ds	1
  1379     0022                     ___awdiv@quotient:
  1380     0022                     __Umul8_16@word_mpld:	
  1381                           ; 2 bytes @ 0x2
  1382                           
  1383                           
  1384                           ; 2 bytes @ 0x2
  1385     0022                     	ds	2
  1386     0024                     clcd_putch@data:
  1387     0024                     __Umul8_16@multiplier:	
  1388                           ; 1 bytes @ 0x4
  1389                           
  1390     0024                     ___xxtofl@sign:	
  1391                           ; 1 bytes @ 0x4
  1392                           
  1393     0024                     ___fladd@a:	
  1394                           ; 1 bytes @ 0x4
  1395                           
  1396                           
  1397                           ; 4 bytes @ 0x4
  1398     0024                     	ds	1
  1399     0025                     ??_power_on_screen:
  1400     0025                     ??_washing_program_display:	
  1401                           ; 1 bytes @ 0x5
  1402                           
  1403     0025                     ??_water_level_display:	
  1404                           ; 1 bytes @ 0x5
  1405                           
  1406     0025                     ___xxtofl@exp:	
  1407                           ; 1 bytes @ 0x5
  1408                           
  1409                           
  1410                           ; 1 bytes @ 0x5
  1411     0025                     	ds	1
  1412     0026                     ___xxtofl@arg:
  1413                           
  1414                           ; 4 bytes @ 0x6
  1415     0026                     	ds	1
  1416     0027                     washing_program_display@key:
  1417     0027                     water_level_display@key:	
  1418                           ; 1 bytes @ 0x7
  1419                           
  1420                           
  1421                           ; 1 bytes @ 0x7
  1422     0027                     	ds	1
  1423     0028                     ??___fladd:
  1424     0028                     power_on_screen@i:	
  1425                           ; 1 bytes @ 0x8
  1426                           
  1427                           
  1428                           ; 1 bytes @ 0x8
  1429     0028                     	ds	1
  1430     0029                     power_on_screen@i_166:
  1431                           
  1432                           ; 1 bytes @ 0x9
  1433     0029                     	ds	1
  1434     002A                     ?___flmul:
  1435     002A                     ___flmul@b:	
  1436                           ; 4 bytes @ 0xA
  1437                           
  1438                           
  1439                           ; 4 bytes @ 0xA
  1440     002A                     	ds	4
  1441     002E                     ___flmul@a:
  1442                           
  1443                           ; 4 bytes @ 0xE
  1444     002E                     	ds	4
  1445     0032                     ??___flmul:
  1446                           
  1447                           ; 1 bytes @ 0x12
  1448     0032                     	ds	5
  1449     0037                     ___flmul@sign:
  1450                           
  1451                           ; 1 bytes @ 0x17
  1452     0037                     	ds	1
  1453     0038                     ___flmul@aexp:
  1454                           
  1455                           ; 1 bytes @ 0x18
  1456     0038                     	ds	1
  1457     0039                     ___flmul@grs:
  1458                           
  1459                           ; 4 bytes @ 0x19
  1460     0039                     	ds	4
  1461     003D                     ___flmul@bexp:
  1462                           
  1463                           ; 1 bytes @ 0x1D
  1464     003D                     	ds	1
  1465     003E                     ___flmul@prod:
  1466                           
  1467                           ; 4 bytes @ 0x1E
  1468     003E                     	ds	4
  1469     0042                     ___flmul@temp:
  1470                           
  1471                           ; 2 bytes @ 0x22
  1472     0042                     	ds	2
  1473     0044                     ?___fltol:
  1474     0044                     ?___flsub:	
  1475                           ; 4 bytes @ 0x24
  1476                           
  1477     0044                     ___fltol@f1:	
  1478                           ; 4 bytes @ 0x24
  1479                           
  1480     0044                     ___flsub@a:	
  1481                           ; 4 bytes @ 0x24
  1482                           
  1483                           
  1484                           ; 4 bytes @ 0x24
  1485     0044                     	ds	4
  1486     0048                     ??___fltol:
  1487     0048                     ___flsub@b:	
  1488                           ; 1 bytes @ 0x28
  1489                           
  1490                           
  1491                           ; 4 bytes @ 0x28
  1492     0048                     	ds	4
  1493     004C                     ?___flge:
  1494     004C                     ___flge@ff1:	
  1495                           ; 1 bit 
  1496                           
  1497                           
  1498                           ; 4 bytes @ 0x2C
  1499     004C                     	ds	4
  1500     0050                     ___flge@ff2:
  1501                           
  1502                           ; 4 bytes @ 0x30
  1503     0050                     	ds	4
  1504     0054                     ??___flge:
  1505                           
  1506                           ; 1 bytes @ 0x34
  1507     0054                     	ds	4
  1508     0058                     ??_run_program:
  1509                           
  1510                           ; 1 bytes @ 0x38
  1511     0058                     	ds	7
  1512     005F                     run_program@key:
  1513                           
  1514                           ; 1 bytes @ 0x3F
  1515     005F                     	ds	1
  1516                           
  1517                           	psect	maintext
  1518     0C72                     __pmaintext:	
  1519 ;;
  1520 ;;Main: autosize = 0, tempsize = 0, incstack = 0, save=0
  1521 ;;
  1522 ;; *************** function _main *****************
  1523 ;; Defined at:
  1524 ;;		line 50 in file "../Washing_machine_simulator-using-PIC16F877A-main/main.c"
  1525 ;; Parameters:    Size  Location     Type
  1526 ;;		None
  1527 ;; Auto vars:     Size  Location     Type
  1528 ;;  j               2    2[BANK1 ] int 
  1529 ;;  j               2    0[BANK1 ] int 
  1530 ;;  key             1    4[BANK1 ] unsigned char 
  1531 ;;  key_copy        1    0        unsigned char 
  1532 ;; Return value:  Size  Location     Type
  1533 ;;                  1    wreg      void 
  1534 ;; Registers used:
  1535 ;;		wreg, fsr0l, fsr0h, status,2, status,0, btemp+1, pclath, cstack
  1536 ;; Tracked objects:
  1537 ;;		On entry : B00/0
  1538 ;;		On exit  : 0/0
  1539 ;;		Unchanged: 0/0
  1540 ;; Data sizes:     COMMON   BANK0   BANK1   BANK3   BANK2
  1541 ;;      Params:         0       0       0       0       0
  1542 ;;      Locals:         0       0       5       0       0
  1543 ;;      Temps:          0       0       0       0       0
  1544 ;;      Totals:         0       0       5       0       0
  1545 ;;Total ram usage:        5 bytes
  1546 ;; Hardware stack levels required when called: 5
  1547 ;; This function calls:
  1548 ;;		_clcd_print
  1549 ;;		_clear_screen
  1550 ;;		_init_config
  1551 ;;		_power_on_screen
  1552 ;;		_read_digital_keypad
  1553 ;;		_run_program
  1554 ;;		_set_time_for_program
  1555 ;;		_washing_program_display
  1556 ;;		_water_level_display
  1557 ;; This function is called by:
  1558 ;;		Startup code after reset
  1559 ;; This function uses a non-reentrant model
  1560 ;;
  1561                           
  1562     0C72                     _main:	
  1563                           ;psect for function _main
  1564                           
  1565     0C72                     l4177:	
  1566                           ;incstack = 0
  1567                           ; Regs used in _main: [wreg-fsr0h+status,2+status,0+btemp+1+pclath+cstack]
  1568                           
  1569     0C72                     l4179:
  1570                           
  1571                           ;../Washing_machine_simulator-using-PIC16F877A-main/main.c: 52:     operation_mode = 0x0
      +                          1;
  1572     0C72  1283               	bcf	3,5	;RP0=0, select bank0
  1573     0C73  1303               	bcf	3,6	;RP1=0, select bank0
  1574     0C74  01ED               	clrf	_operation_mode
  1575     0C75  0AED               	incf	_operation_mode,f
  1576                           
  1577                           ;../Washing_machine_simulator-using-PIC16F877A-main/main.c: 53:     reset_mode = 0x10;
  1578     0C76  3010               	movlw	16
  1579     0C77  1683               	bsf	3,5	;RP0=1, select bank1
  1580     0C78  1303               	bcf	3,6	;RP1=0, select bank1
  1581     0C79  00C9               	movwf	_reset_mode^(0+128)
  1582     0C7A                     l4181:
  1583                           
  1584                           ;../Washing_machine_simulator-using-PIC16F877A-main/main.c: 54:     init_config();
  1585     0C7A  120A  118A  27E2  120A  158A  	fcall	_init_config
  1586     0C7F                     l4183:
  1587                           
  1588                           ;../Washing_machine_simulator-using-PIC16F877A-main/main.c: 56:     clcd_print(" Press K
      +                          ey5 To  ", (0x80 + 0));
  1589     0C7F  3022               	movlw	low (STR_18| (0+32768))
  1590     0C80  00F6               	movwf	clcd_print@str
  1591     0C81  3090               	movlw	high (STR_18| (0+32768))
  1592     0C82  00F7               	movwf	clcd_print@str+1
  1593     0C83  3080               	movlw	128
  1594     0C84  00F8               	movwf	clcd_print@addr
  1595     0C85  160A  118A  25F2  120A  158A  	fcall	_clcd_print
  1596     0C8A                     l4185:
  1597                           
  1598                           ;../Washing_machine_simulator-using-PIC16F877A-main/main.c: 57:     clcd_print("    Powe
      +                          r ON    ", (0xC0 + 0));
  1599     0C8A  3000               	movlw	low (STR_19| (0+32768))
  1600     0C8B  00F6               	movwf	clcd_print@str
  1601     0C8C  3090               	movlw	high (STR_19| (0+32768))
  1602     0C8D  00F7               	movwf	clcd_print@str+1
  1603     0C8E  30C0               	movlw	192
  1604     0C8F  00F8               	movwf	clcd_print@addr
  1605     0C90  160A  118A  25F2  120A  158A  	fcall	_clcd_print
  1606     0C95                     l4187:
  1607                           
  1608                           ;../Washing_machine_simulator-using-PIC16F877A-main/main.c: 58:     clcd_print(" Washing
      +                           Machine", (0x90 + 0));
  1609     0C95  3055               	movlw	low (STR_20| (0+32768))
  1610     0C96  00F6               	movwf	clcd_print@str
  1611     0C97  3090               	movlw	high (STR_20| (0+32768))
  1612     0C98  00F7               	movwf	clcd_print@str+1
  1613     0C99  3090               	movlw	144
  1614     0C9A  00F8               	movwf	clcd_print@addr
  1615     0C9B  160A  118A  25F2  120A  158A  	fcall	_clcd_print
  1616                           
  1617                           ;../Washing_machine_simulator-using-PIC16F877A-main/main.c: 60:    while( read_digital_k
      +                          eypad(1) != 0x2F)
  1618     0CA0  2CB5               	goto	l4193
  1619     0CA1                     l4189:
  1620                           
  1621                           ;../Washing_machine_simulator-using-PIC16F877A-main/main.c: 61:    {;../Washing_machine_
      +                          simulator-using-PIC16F877A-main/main.c: 62:        for(int j=3000; j--; );
  1622     0CA1  30B8               	movlw	184
  1623     0CA2  1683               	bsf	3,5	;RP0=1, select bank1
  1624     0CA3  1303               	bcf	3,6	;RP1=0, select bank1
  1625     0CA4  00C2               	movwf	main@j^(0+128)
  1626     0CA5  300B               	movlw	11
  1627     0CA6  00C3               	movwf	(main@j^(0+128)+1)
  1628     0CA7                     l4191:
  1629     0CA7  30FF               	movlw	255
  1630     0CA8  07C2               	addwf	main@j^(0+128),f
  1631     0CA9  1803               	skipnc
  1632     0CAA  0AC3               	incf	(main@j+1)^(0+128),f
  1633     0CAB  30FF               	movlw	255
  1634     0CAC  07C3               	addwf	(main@j+1)^(0+128),f
  1635     0CAD  0A42               	incf	main@j^(0+128),w
  1636     0CAE  1D03               	skipz
  1637     0CAF  2CB4               	goto	u5691
  1638     0CB0  0A43               	incf	(main@j+1)^(0+128),w
  1639     0CB1  1D03               	btfss	3,2
  1640     0CB2  2CB4               	goto	u5691
  1641     0CB3  2CB5               	goto	u5690
  1642     0CB4                     u5691:
  1643     0CB4  2CA7               	goto	l4191
  1644     0CB5                     u5690:
  1645     0CB5                     l4193:
  1646                           
  1647                           ;../Washing_machine_simulator-using-PIC16F877A-main/main.c: 60:    while( read_digital_k
      +                          eypad(1) != 0x2F)
  1648     0CB5  3001               	movlw	1
  1649     0CB6  160A  118A  27A1  120A  158A  	fcall	_read_digital_keypad
  1650     0CBB  3A2F               	xorlw	47
  1651     0CBC  1D03               	skipz
  1652     0CBD  2CBF               	goto	u5701
  1653     0CBE  2CC0               	goto	u5700
  1654     0CBF                     u5701:
  1655     0CBF  2CA1               	goto	l4189
  1656     0CC0                     u5700:
  1657     0CC0                     l4195:
  1658                           
  1659                           ;../Washing_machine_simulator-using-PIC16F877A-main/main.c: 66:     clear_screen();
  1660     0CC0  160A  118A  251E  120A  158A  	fcall	_clear_screen
  1661     0CC5                     l4197:
  1662                           
  1663                           ;../Washing_machine_simulator-using-PIC16F877A-main/main.c: 69:    power_on_screen();
  1664     0CC5  160A  118A  269D  120A  158A  	fcall	_power_on_screen
  1665     0CCA                     l4199:
  1666                           
  1667                           ;../Washing_machine_simulator-using-PIC16F877A-main/main.c: 73:         key = read_digit
      +                          al_keypad(1);
  1668     0CCA  3001               	movlw	1
  1669     0CCB  160A  118A  27A1  120A  158A  	fcall	_read_digital_keypad
  1670     0CD0  1683               	bsf	3,5	;RP0=1, select bank1
  1671     0CD1  1303               	bcf	3,6	;RP1=0, select bank1
  1672     0CD2  00C6               	movwf	main@key^(0+128)
  1673     0CD3                     l4201:
  1674                           
  1675                           ;../Washing_machine_simulator-using-PIC16F877A-main/main.c: 74:          for(int j=3000;
      +                           j--; );
  1676     0CD3  30B8               	movlw	184
  1677     0CD4  00C4               	movwf	main@j_156^(0+128)
  1678     0CD5  300B               	movlw	11
  1679     0CD6  00C5               	movwf	(main@j_156^(0+128)+1)
  1680     0CD7                     l4203:
  1681     0CD7  30FF               	movlw	255
  1682     0CD8  07C4               	addwf	main@j_156^(0+128),f
  1683     0CD9  1803               	skipnc
  1684     0CDA  0AC5               	incf	(main@j_156+1)^(0+128),f
  1685     0CDB  30FF               	movlw	255
  1686     0CDC  07C5               	addwf	(main@j_156+1)^(0+128),f
  1687     0CDD  0A44               	incf	main@j_156^(0+128),w
  1688     0CDE  1D03               	skipz
  1689     0CDF  2CE4               	goto	u5711
  1690     0CE0  0A45               	incf	(main@j_156+1)^(0+128),w
  1691     0CE1  1D03               	btfss	3,2
  1692     0CE2  2CE4               	goto	u5711
  1693     0CE3  2CE5               	goto	u5710
  1694     0CE4                     u5711:
  1695     0CE4  2CD7               	goto	l4203
  1696     0CE5                     u5710:
  1697     0CE5                     l4205:
  1698                           
  1699                           ;../Washing_machine_simulator-using-PIC16F877A-main/main.c: 76:          if(key == 0xB7 
      +                          && operation_mode == 0x01)
  1700     0CE5  30B7               	movlw	183
  1701     0CE6  0646               	xorwf	main@key^(0+128),w
  1702     0CE7  1D03               	btfss	3,2
  1703     0CE8  2CEA               	goto	u5721
  1704     0CE9  2CEB               	goto	u5720
  1705     0CEA                     u5721:
  1706     0CEA  2CF9               	goto	l4211
  1707     0CEB                     u5720:
  1708     0CEB                     l4207:
  1709     0CEB  1283               	bcf	3,5	;RP0=0, select bank0
  1710     0CEC  1303               	bcf	3,6	;RP1=0, select bank0
  1711     0CED  036D               	decf	_operation_mode,w
  1712     0CEE  1D03               	btfss	3,2
  1713     0CEF  2CF1               	goto	u5731
  1714     0CF0  2CF2               	goto	u5730
  1715     0CF1                     u5731:
  1716     0CF1  2CF9               	goto	l4211
  1717     0CF2                     u5730:
  1718     0CF2                     l4209:
  1719                           
  1720                           ;../Washing_machine_simulator-using-PIC16F877A-main/main.c: 77:         {;../Washing_mac
      +                          hine_simulator-using-PIC16F877A-main/main.c: 79:             operation_mode = 0x02;
  1721     0CF2  3002               	movlw	2
  1722     0CF3  00ED               	movwf	_operation_mode
  1723                           
  1724                           ;../Washing_machine_simulator-using-PIC16F877A-main/main.c: 80:             reset_mode =
      +                           0x11;
  1725     0CF4  3011               	movlw	17
  1726     0CF5  1683               	bsf	3,5	;RP0=1, select bank1
  1727     0CF6  1303               	bcf	3,6	;RP1=0, select bank1
  1728     0CF7  00C9               	movwf	_reset_mode^(0+128)
  1729                           
  1730                           ;../Washing_machine_simulator-using-PIC16F877A-main/main.c: 81:         }
  1731     0CF8  2D8A               	goto	l4255
  1732     0CF9                     l4211:
  1733     0CF9  30B7               	movlw	183
  1734     0CFA  1683               	bsf	3,5	;RP0=1, select bank1
  1735     0CFB  1303               	bcf	3,6	;RP1=0, select bank1
  1736     0CFC  0646               	xorwf	main@key^(0+128),w
  1737     0CFD  1D03               	btfss	3,2
  1738     0CFE  2D00               	goto	u5741
  1739     0CFF  2D01               	goto	u5740
  1740     0D00                     u5741:
  1741     0D00  2D39               	goto	l4227
  1742     0D01                     u5740:
  1743     0D01                     l4213:
  1744     0D01  3002               	movlw	2
  1745     0D02  1283               	bcf	3,5	;RP0=0, select bank0
  1746     0D03  1303               	bcf	3,6	;RP1=0, select bank0
  1747     0D04  066D               	xorwf	_operation_mode,w
  1748     0D05  1D03               	btfss	3,2
  1749     0D06  2D08               	goto	u5751
  1750     0D07  2D09               	goto	u5750
  1751     0D08                     u5751:
  1752     0D08  2D39               	goto	l4227
  1753     0D09                     u5750:
  1754     0D09                     l4215:
  1755                           
  1756                           ;../Washing_machine_simulator-using-PIC16F877A-main/main.c: 83:         {;../Washing_mac
      +                          hine_simulator-using-PIC16F877A-main/main.c: 85:             set_time_for_program();
  1757     0D09  120A  158A  219D  120A  158A  	fcall	_set_time_for_program
  1758     0D0E                     l4217:
  1759                           
  1760                           ;../Washing_machine_simulator-using-PIC16F877A-main/main.c: 87:             clear_screen
      +                          ();
  1761     0D0E  160A  118A  251E  120A  158A  	fcall	_clear_screen
  1762     0D13                     l4219:
  1763                           
  1764                           ;../Washing_machine_simulator-using-PIC16F877A-main/main.c: 89:             clcd_print("
      +                          Press Switch", (0x80 + 0));
  1765     0D13  30AE               	movlw	low (STR_21| (0+32768))
  1766     0D14  00F6               	movwf	clcd_print@str
  1767     0D15  3090               	movlw	high (STR_21| (0+32768))
  1768     0D16  00F7               	movwf	clcd_print@str+1
  1769     0D17  3080               	movlw	128
  1770     0D18  00F8               	movwf	clcd_print@addr
  1771     0D19  160A  118A  25F2  120A  158A  	fcall	_clcd_print
  1772     0D1E                     l4221:
  1773                           
  1774                           ;../Washing_machine_simulator-using-PIC16F877A-main/main.c: 90:             clcd_print("
      +                           SW5: START ", (0xC0 + 0));
  1775     0D1E  3094               	movlw	low (STR_22| (0+32768))
  1776     0D1F  00F6               	movwf	clcd_print@str
  1777     0D20  3090               	movlw	high (STR_22| (0+32768))
  1778     0D21  00F7               	movwf	clcd_print@str+1
  1779     0D22  30C0               	movlw	192
  1780     0D23  00F8               	movwf	clcd_print@addr
  1781     0D24  160A  118A  25F2  120A  158A  	fcall	_clcd_print
  1782     0D29                     l4223:
  1783                           
  1784                           ;../Washing_machine_simulator-using-PIC16F877A-main/main.c: 91:             clcd_print("
      +                           SW6: STOP ", (0x90 + 0));
  1785     0D29  30BB               	movlw	low (STR_23| (0+32768))
  1786     0D2A  00F6               	movwf	clcd_print@str
  1787     0D2B  3090               	movlw	high (STR_23| (0+32768))
  1788     0D2C  00F7               	movwf	clcd_print@str+1
  1789     0D2D  3090               	movlw	144
  1790     0D2E  00F8               	movwf	clcd_print@addr
  1791     0D2F  160A  118A  25F2  120A  158A  	fcall	_clcd_print
  1792     0D34                     l4225:
  1793                           
  1794                           ;../Washing_machine_simulator-using-PIC16F877A-main/main.c: 92:             operation_mo
      +                          de = 0x03;
  1795     0D34  3003               	movlw	3
  1796     0D35  1283               	bcf	3,5	;RP0=0, select bank0
  1797     0D36  1303               	bcf	3,6	;RP1=0, select bank0
  1798     0D37  00ED               	movwf	_operation_mode
  1799                           
  1800                           ;../Washing_machine_simulator-using-PIC16F877A-main/main.c: 93:         }
  1801     0D38  2D8A               	goto	l4255
  1802     0D39                     l4227:
  1803     0D39  302F               	movlw	47
  1804     0D3A  1683               	bsf	3,5	;RP0=1, select bank1
  1805     0D3B  1303               	bcf	3,6	;RP1=0, select bank1
  1806     0D3C  0646               	xorwf	main@key^(0+128),w
  1807     0D3D  1D03               	btfss	3,2
  1808     0D3E  2D40               	goto	u5761
  1809     0D3F  2D41               	goto	u5760
  1810     0D40                     u5761:
  1811     0D40  2D4E               	goto	l161
  1812     0D41                     u5760:
  1813     0D41                     l4229:
  1814     0D41  3005               	movlw	5
  1815     0D42  1283               	bcf	3,5	;RP0=0, select bank0
  1816     0D43  1303               	bcf	3,6	;RP1=0, select bank0
  1817     0D44  066D               	xorwf	_operation_mode,w
  1818     0D45  1D03               	btfss	3,2
  1819     0D46  2D48               	goto	u5771
  1820     0D47  2D49               	goto	u5770
  1821     0D48                     u5771:
  1822     0D48  2D4E               	goto	l161
  1823     0D49                     u5770:
  1824     0D49                     l4231:
  1825                           
  1826                           ;../Washing_machine_simulator-using-PIC16F877A-main/main.c: 95:         {;../Washing_mac
      +                          hine_simulator-using-PIC16F877A-main/main.c: 96:             TMR2ON = 1;
  1827     0D49  1512               	bsf	18,2	;volatile
  1828                           
  1829                           ;../Washing_machine_simulator-using-PIC16F877A-main/main.c: 97:             RC2 = 1;
  1830     0D4A  1507               	bsf	7,2	;volatile
  1831     0D4B                     l4233:
  1832                           
  1833                           ;../Washing_machine_simulator-using-PIC16F877A-main/main.c: 98:             operation_mo
      +                          de = 0x04;
  1834     0D4B  3004               	movlw	4
  1835     0D4C  00ED               	movwf	_operation_mode
  1836     0D4D  2D8A               	goto	l4255
  1837     0D4E                     l161:
  1838                           
  1839                           ;../Washing_machine_simulator-using-PIC16F877A-main/main.c: 101:         switch(operatio
      +                          n_mode)
  1840     0D4E  2D8A               	goto	l4255
  1841     0D4F                     l4235:
  1842                           
  1843                           ;../Washing_machine_simulator-using-PIC16F877A-main/main.c: 105:                  washin
      +                          g_program_display(key);
  1844     0D4F  1683               	bsf	3,5	;RP0=1, select bank1
  1845     0D50  1303               	bcf	3,6	;RP1=0, select bank1
  1846     0D51  0846               	movf	main@key^(0+128),w
  1847     0D52  120A  158A  2286  120A  158A  	fcall	_washing_program_display
  1848                           
  1849                           ;../Washing_machine_simulator-using-PIC16F877A-main/main.c: 106:                  break;
  1850     0D57  2D99               	goto	l4257
  1851     0D58                     l4237:
  1852                           
  1853                           ;../Washing_machine_simulator-using-PIC16F877A-main/main.c: 108:                 water_l
      +                          evel_display(key);
  1854     0D58  1683               	bsf	3,5	;RP0=1, select bank1
  1855     0D59  1303               	bcf	3,6	;RP1=0, select bank1
  1856     0D5A  0846               	movf	main@key^(0+128),w
  1857     0D5B  120A  158A  237C  120A  158A  	fcall	_water_level_display
  1858                           
  1859                           ;../Washing_machine_simulator-using-PIC16F877A-main/main.c: 109:                 break;
  1860     0D60  2D99               	goto	l4257
  1861     0D61                     l4239:
  1862                           
  1863                           ;../Washing_machine_simulator-using-PIC16F877A-main/main.c: 111:                 if(key 
      +                          == 0x2F)
  1864     0D61  302F               	movlw	47
  1865     0D62  1683               	bsf	3,5	;RP0=1, select bank1
  1866     0D63  1303               	bcf	3,6	;RP1=0, select bank1
  1867     0D64  0646               	xorwf	main@key^(0+128),w
  1868     0D65  1D03               	btfss	3,2
  1869     0D66  2D68               	goto	u5781
  1870     0D67  2D69               	goto	u5780
  1871     0D68                     u5781:
  1872     0D68  2D72               	goto	l4245
  1873     0D69                     u5780:
  1874     0D69                     l4241:
  1875                           
  1876                           ;../Washing_machine_simulator-using-PIC16F877A-main/main.c: 112:                 {;../Wa
      +                          shing_machine_simulator-using-PIC16F877A-main/main.c: 113:                     operation
      +                          _mode = 0x04;
  1877     0D69  3004               	movlw	4
  1878     0D6A  1283               	bcf	3,5	;RP0=0, select bank0
  1879     0D6B  1303               	bcf	3,6	;RP1=0, select bank0
  1880     0D6C  00ED               	movwf	_operation_mode
  1881                           
  1882                           ;../Washing_machine_simulator-using-PIC16F877A-main/main.c: 114:                     res
      +                          et_mode = 0x12;
  1883     0D6D  3012               	movlw	18
  1884     0D6E  1683               	bsf	3,5	;RP0=1, select bank1
  1885     0D6F  1303               	bcf	3,6	;RP1=0, select bank1
  1886     0D70  00C9               	movwf	_reset_mode^(0+128)
  1887                           
  1888                           ;../Washing_machine_simulator-using-PIC16F877A-main/main.c: 115:                     con
      +                          tinue;
  1889     0D71  2CCA               	goto	l4199
  1890     0D72                     l4245:
  1891     0D72  301F               	movlw	31
  1892     0D73  0646               	xorwf	main@key^(0+128),w
  1893     0D74  1D03               	btfss	3,2
  1894     0D75  2D77               	goto	u5791
  1895     0D76  2D78               	goto	u5790
  1896     0D77                     u5791:
  1897     0D77  2D99               	goto	l4257
  1898     0D78                     u5790:
  1899     0D78                     l4247:
  1900                           
  1901                           ;../Washing_machine_simulator-using-PIC16F877A-main/main.c: 118:                 {;../Wa
      +                          shing_machine_simulator-using-PIC16F877A-main/main.c: 119:                     operation
      +                          _mode = 0x01;
  1902     0D78  1283               	bcf	3,5	;RP0=0, select bank0
  1903     0D79  1303               	bcf	3,6	;RP1=0, select bank0
  1904     0D7A  01ED               	clrf	_operation_mode
  1905     0D7B  0AED               	incf	_operation_mode,f
  1906     0D7C                     l4249:
  1907                           
  1908                           ;../Washing_machine_simulator-using-PIC16F877A-main/main.c: 120:                     res
      +                          et_mode = 0x10;
  1909     0D7C  3010               	movlw	16
  1910     0D7D  1683               	bsf	3,5	;RP0=1, select bank1
  1911     0D7E  1303               	bcf	3,6	;RP1=0, select bank1
  1912     0D7F  00C9               	movwf	_reset_mode^(0+128)
  1913                           
  1914                           ;../Washing_machine_simulator-using-PIC16F877A-main/main.c: 121:                     con
      +                          tinue;
  1915     0D80  2CCA               	goto	l4199
  1916     0D81                     l4251:
  1917                           
  1918                           ;../Washing_machine_simulator-using-PIC16F877A-main/main.c: 126:                 run_pro
      +                          gram(key);
  1919     0D81  1683               	bsf	3,5	;RP0=1, select bank1
  1920     0D82  1303               	bcf	3,6	;RP1=0, select bank1
  1921     0D83  0846               	movf	main@key^(0+128),w
  1922     0D84  120A  118A  203D  120A  158A  	fcall	_run_program
  1923                           
  1924                           ;../Washing_machine_simulator-using-PIC16F877A-main/main.c: 127:                 break;
  1925     0D89  2D99               	goto	l4257
  1926     0D8A                     l4255:
  1927     0D8A  1283               	bcf	3,5	;RP0=0, select bank0
  1928     0D8B  086D               	movf	_operation_mode,w
  1929                           
  1930                           ; Switch size 1, requested type "simple"
  1931                           ; Number of cases is 4, Range of values is 1 to 4
  1932                           ; switch strategies available:
  1933                           ; Name         Instructions Cycles
  1934                           ; simple_byte           13     7 (average)
  1935                           ; direct_byte           23    11 (fixed)
  1936                           ; jumptable            263     9 (fixed)
  1937                           ;	Chosen strategy is simple_byte
  1938     0D8C  3A01               	xorlw	1	; case 1
  1939     0D8D  1903               	skipnz
  1940     0D8E  2D4F               	goto	l4235
  1941     0D8F  3A03               	xorlw	3	; case 2
  1942     0D90  1903               	skipnz
  1943     0D91  2D58               	goto	l4237
  1944     0D92  3A01               	xorlw	1	; case 3
  1945     0D93  1903               	skipnz
  1946     0D94  2D61               	goto	l4239
  1947     0D95  3A07               	xorlw	7	; case 4
  1948     0D96  1903               	skipnz
  1949     0D97  2D81               	goto	l4251
  1950     0D98  2D99               	goto	l4257
  1951     0D99                     l4257:
  1952                           
  1953                           ;../Washing_machine_simulator-using-PIC16F877A-main/main.c: 130:         reset_mode = 0x
      +                          00;
  1954     0D99  1683               	bsf	3,5	;RP0=1, select bank1
  1955     0D9A  1303               	bcf	3,6	;RP1=0, select bank1
  1956     0D9B  01C9               	clrf	_reset_mode^(0+128)
  1957     0D9C  2CCA               	goto	l4199
  1958     0D9D  120A  118A  280C   	ljmp	start
  1959     0DA0                     __end_of_main:
  1960                           
  1961                           	psect	text1
  1962     0B7C                     __ptext1:	
  1963 ;; *************** function _water_level_display *****************
  1964 ;; Defined at:
  1965 ;;		line 211 in file "../Washing_machine_simulator-using-PIC16F877A-main/main.c"
  1966 ;; Parameters:    Size  Location     Type
  1967 ;;  key             1    wreg     unsigned char 
  1968 ;; Auto vars:     Size  Location     Type
  1969 ;;  key             1    7[BANK0 ] unsigned char 
  1970 ;; Return value:  Size  Location     Type
  1971 ;;                  1    wreg      void 
  1972 ;; Registers used:
  1973 ;;		wreg, fsr0l, fsr0h, status,2, status,0, btemp+1, pclath, cstack
  1974 ;; Tracked objects:
  1975 ;;		On entry : 0/0
  1976 ;;		On exit  : 0/0
  1977 ;;		Unchanged: 0/0
  1978 ;; Data sizes:     COMMON   BANK0   BANK1   BANK3   BANK2
  1979 ;;      Params:         0       0       0       0       0
  1980 ;;      Locals:         0       1       0       0       0
  1981 ;;      Temps:          0       2       0       0       0
  1982 ;;      Totals:         0       3       0       0       0
  1983 ;;Total ram usage:        3 bytes
  1984 ;; Hardware stack levels used: 1
  1985 ;; Hardware stack levels required when called: 3
  1986 ;; This function calls:
  1987 ;;		_clcd_print
  1988 ;;		_clcd_putch
  1989 ;;		_clear_screen
  1990 ;; This function is called by:
  1991 ;;		_main
  1992 ;; This function uses a non-reentrant model
  1993 ;;
  1994                           
  1995     0B7C                     _water_level_display:	
  1996                           ;psect for function _water_level_display
  1997                           
  1998                           
  1999                           ;incstack = 0
  2000                           ; Regs used in _water_level_display: [wreg-fsr0h+status,2+status,0+btemp+1+pclath+cstack
      +                          ]
  2001                           ;water_level_display@key stored from wreg
  2002     0B7C  1283               	bcf	3,5	;RP0=0, select bank0
  2003     0B7D  1303               	bcf	3,6	;RP1=0, select bank0
  2004     0B7E  00A7               	movwf	water_level_display@key
  2005     0B7F                     l4037:
  2006                           
  2007                           ;../Washing_machine_simulator-using-PIC16F877A-main/main.c: 211: void water_level_displa
      +                          y(unsigned char key);../Washing_machine_simulator-using-PIC16F877A-main/main.c: 212: {;.
      +                          ./Washing_machine_simulator-using-PIC16F877A-main/main.c: 213:     if( reset_mode == 0x1
      +                          1)
  2008     0B7F  3011               	movlw	17
  2009     0B80  1683               	bsf	3,5	;RP0=1, select bank1
  2010     0B81  1303               	bcf	3,6	;RP1=0, select bank1
  2011     0B82  0649               	xorwf	_reset_mode^(0+128),w
  2012     0B83  1D03               	btfss	3,2
  2013     0B84  2B86               	goto	u5531
  2014     0B85  2B87               	goto	u5530
  2015     0B86                     u5531:
  2016     0B86  2B8D               	goto	l4043
  2017     0B87                     u5530:
  2018     0B87                     l4039:
  2019                           
  2020                           ;../Washing_machine_simulator-using-PIC16F877A-main/main.c: 214:     {;../Washing_machin
      +                          e_simulator-using-PIC16F877A-main/main.c: 215:         water_level_index = 0;
  2021     0B87  01F9               	clrf	_water_level_index
  2022     0B88                     l4041:
  2023                           
  2024                           ;../Washing_machine_simulator-using-PIC16F877A-main/main.c: 216:         clear_screen();
  2025     0B88  160A  118A  251E  120A  158A  	fcall	_clear_screen
  2026     0B8D                     l4043:
  2027                           
  2028                           ;../Washing_machine_simulator-using-PIC16F877A-main/main.c: 218:     if(key == 0x37)
  2029     0B8D  3037               	movlw	55
  2030     0B8E  1283               	bcf	3,5	;RP0=0, select bank0
  2031     0B8F  1303               	bcf	3,6	;RP1=0, select bank0
  2032     0B90  0627               	xorwf	water_level_display@key,w
  2033     0B91  1D03               	btfss	3,2
  2034     0B92  2B94               	goto	u5541
  2035     0B93  2B95               	goto	u5540
  2036     0B94                     u5541:
  2037     0B94  2BA5               	goto	l4053
  2038     0B95                     u5540:
  2039     0B95                     l4045:
  2040                           
  2041                           ;../Washing_machine_simulator-using-PIC16F877A-main/main.c: 219:     {;../Washing_machin
      +                          e_simulator-using-PIC16F877A-main/main.c: 220:         water_level_index++;
  2042     0B95  3001               	movlw	1
  2043     0B96  00FF               	movwf	btemp+1
  2044     0B97  087F               	movf	btemp+1,w
  2045     0B98  07F9               	addwf	_water_level_index,f
  2046     0B99                     l4047:
  2047                           
  2048                           ;../Washing_machine_simulator-using-PIC16F877A-main/main.c: 221:         if(water_level_
      +                          index == 5)
  2049     0B99  3005               	movlw	5
  2050     0B9A  0679               	xorwf	_water_level_index,w
  2051     0B9B  1D03               	btfss	3,2
  2052     0B9C  2B9E               	goto	u5551
  2053     0B9D  2B9F               	goto	u5550
  2054     0B9E                     u5551:
  2055     0B9E  2BA0               	goto	l4051
  2056     0B9F                     u5550:
  2057     0B9F                     l4049:
  2058                           
  2059                           ;../Washing_machine_simulator-using-PIC16F877A-main/main.c: 222:         {;../Washing_ma
      +                          chine_simulator-using-PIC16F877A-main/main.c: 223:             water_level_index = 0;
  2060     0B9F  01F9               	clrf	_water_level_index
  2061     0BA0                     l4051:
  2062                           
  2063                           ;../Washing_machine_simulator-using-PIC16F877A-main/main.c: 225:         clear_screen();
  2064     0BA0  160A  118A  251E  120A  158A  	fcall	_clear_screen
  2065     0BA5                     l4053:
  2066                           
  2067                           ;../Washing_machine_simulator-using-PIC16F877A-main/main.c: 238:     clcd_print("Water L
      +                          evel", (0x80 + 0));
  2068     0BA5  30D3               	movlw	low (STR_27| (0+32768))
  2069     0BA6  00F6               	movwf	clcd_print@str
  2070     0BA7  3090               	movlw	high (STR_27| (0+32768))
  2071     0BA8  00F7               	movwf	clcd_print@str+1
  2072     0BA9  3080               	movlw	128
  2073     0BAA  00F8               	movwf	clcd_print@addr
  2074     0BAB  160A  118A  25F2  120A  158A  	fcall	_clcd_print
  2075     0BB0                     l4055:
  2076                           
  2077                           ;../Washing_machine_simulator-using-PIC16F877A-main/main.c: 239:     clcd_putch('*', (0x
      +                          C0 + 0));
  2078     0BB0  30C0               	movlw	192
  2079     0BB1  00F8               	movwf	clcd_putch@addr
  2080     0BB2  302A               	movlw	42
  2081     0BB3  120A  158A  2003  120A  158A  	fcall	_clcd_putch
  2082     0BB8                     l4057:
  2083                           
  2084                           ;../Washing_machine_simulator-using-PIC16F877A-main/main.c: 240:     if(water_level_inde
      +                          x <= 2)
  2085     0BB8  3003               	movlw	3
  2086     0BB9  0279               	subwf	_water_level_index,w
  2087     0BBA  1803               	skipnc
  2088     0BBB  2BBD               	goto	u5561
  2089     0BBC  2BBE               	goto	u5560
  2090     0BBD                     u5561:
  2091     0BBD  2BFE               	goto	l4061
  2092     0BBE                     u5560:
  2093     0BBE                     l4059:
  2094                           
  2095                           ;../Washing_machine_simulator-using-PIC16F877A-main/main.c: 241:     {;../Washing_machin
      +                          e_simulator-using-PIC16F877A-main/main.c: 242:         clcd_print(water_level_arr[water_
      +                          level_index], (0xC0 + 2));
  2096     0BBE  0879               	movf	_water_level_index,w
  2097     0BBF  1283               	bcf	3,5	;RP0=0, select bank0
  2098     0BC0  1303               	bcf	3,6	;RP1=0, select bank0
  2099     0BC1  00A5               	movwf	??_water_level_display
  2100     0BC2  0725               	addwf	??_water_level_display,w
  2101     0BC3  3EB8               	addlw	(low (_water_level_arr| 0))& (0+255)
  2102     0BC4  0084               	movwf	4
  2103     0BC5  1383               	bcf	3,7	;select IRP bank1
  2104     0BC6  0800               	movf	0,w
  2105     0BC7  00F6               	movwf	clcd_print@str
  2106     0BC8  0A84               	incf	4,f
  2107     0BC9  0800               	movf	0,w
  2108     0BCA  0384               	decf	4,f
  2109     0BCB  00F7               	movwf	clcd_print@str+1
  2110     0BCC  30C2               	movlw	194
  2111     0BCD  00F8               	movwf	clcd_print@addr
  2112     0BCE  160A  118A  25F2  120A  158A  	fcall	_clcd_print
  2113                           
  2114                           ;../Washing_machine_simulator-using-PIC16F877A-main/main.c: 243:         clcd_print(wate
      +                          r_level_arr[water_level_index + 1], (0x90 + 2));
  2115     0BD3  0879               	movf	_water_level_index,w
  2116     0BD4  1283               	bcf	3,5	;RP0=0, select bank0
  2117     0BD5  1303               	bcf	3,6	;RP1=0, select bank0
  2118     0BD6  00A5               	movwf	??_water_level_display
  2119     0BD7  0725               	addwf	??_water_level_display,w
  2120     0BD8  3EBA               	addlw	(low ((_water_level_arr| 0+2)))& (0+255)
  2121     0BD9  0084               	movwf	4
  2122     0BDA  1383               	bcf	3,7	;select IRP bank1
  2123     0BDB  0800               	movf	0,w
  2124     0BDC  00F6               	movwf	clcd_print@str
  2125     0BDD  0A84               	incf	4,f
  2126     0BDE  0800               	movf	0,w
  2127     0BDF  0384               	decf	4,f
  2128     0BE0  00F7               	movwf	clcd_print@str+1
  2129     0BE1  3092               	movlw	146
  2130     0BE2  00F8               	movwf	clcd_print@addr
  2131     0BE3  160A  118A  25F2  120A  158A  	fcall	_clcd_print
  2132                           
  2133                           ;../Washing_machine_simulator-using-PIC16F877A-main/main.c: 244:         clcd_print(wate
      +                          r_level_arr[water_level_index + 2], (0xD0 + 2));
  2134     0BE8  0879               	movf	_water_level_index,w
  2135     0BE9  1283               	bcf	3,5	;RP0=0, select bank0
  2136     0BEA  1303               	bcf	3,6	;RP1=0, select bank0
  2137     0BEB  00A5               	movwf	??_water_level_display
  2138     0BEC  0725               	addwf	??_water_level_display,w
  2139     0BED  3EBC               	addlw	(low ((_water_level_arr| 0+4)))& (0+255)
  2140     0BEE  0084               	movwf	4
  2141     0BEF  1383               	bcf	3,7	;select IRP bank1
  2142     0BF0  0800               	movf	0,w
  2143     0BF1  00F6               	movwf	clcd_print@str
  2144     0BF2  0A84               	incf	4,f
  2145     0BF3  0800               	movf	0,w
  2146     0BF4  0384               	decf	4,f
  2147     0BF5  00F7               	movwf	clcd_print@str+1
  2148     0BF6  30D2               	movlw	210
  2149     0BF7  00F8               	movwf	clcd_print@addr
  2150     0BF8  160A  118A  25F2  120A  158A  	fcall	_clcd_print
  2151                           
  2152                           ;../Washing_machine_simulator-using-PIC16F877A-main/main.c: 245:     }
  2153     0BFD  2C71               	goto	l208
  2154     0BFE                     l4061:
  2155     0BFE  3003               	movlw	3
  2156     0BFF  0679               	xorwf	_water_level_index,w
  2157     0C00  1D03               	btfss	3,2
  2158     0C01  2C03               	goto	u5571
  2159     0C02  2C04               	goto	u5570
  2160     0C03                     u5571:
  2161     0C03  2C3C               	goto	l4065
  2162     0C04                     u5570:
  2163     0C04                     l4063:
  2164                           
  2165                           ;../Washing_machine_simulator-using-PIC16F877A-main/main.c: 247:     {;../Washing_machin
      +                          e_simulator-using-PIC16F877A-main/main.c: 248:         clcd_print(water_level_arr[water_
      +                          level_index], (0xC0 + 2));
  2166     0C04  0879               	movf	_water_level_index,w
  2167     0C05  1283               	bcf	3,5	;RP0=0, select bank0
  2168     0C06  1303               	bcf	3,6	;RP1=0, select bank0
  2169     0C07  00A5               	movwf	??_water_level_display
  2170     0C08  0725               	addwf	??_water_level_display,w
  2171     0C09  3EB8               	addlw	(low (_water_level_arr| 0))& (0+255)
  2172     0C0A  0084               	movwf	4
  2173     0C0B  1383               	bcf	3,7	;select IRP bank1
  2174     0C0C  0800               	movf	0,w
  2175     0C0D  00F6               	movwf	clcd_print@str
  2176     0C0E  0A84               	incf	4,f
  2177     0C0F  0800               	movf	0,w
  2178     0C10  0384               	decf	4,f
  2179     0C11  00F7               	movwf	clcd_print@str+1
  2180     0C12  30C2               	movlw	194
  2181     0C13  00F8               	movwf	clcd_print@addr
  2182     0C14  160A  118A  25F2  120A  158A  	fcall	_clcd_print
  2183                           
  2184                           ;../Washing_machine_simulator-using-PIC16F877A-main/main.c: 249:         clcd_print(wate
      +                          r_level_arr[water_level_index + 1], (0x90 + 2));
  2185     0C19  0879               	movf	_water_level_index,w
  2186     0C1A  1283               	bcf	3,5	;RP0=0, select bank0
  2187     0C1B  1303               	bcf	3,6	;RP1=0, select bank0
  2188     0C1C  00A5               	movwf	??_water_level_display
  2189     0C1D  0725               	addwf	??_water_level_display,w
  2190     0C1E  3EBA               	addlw	(low ((_water_level_arr| 0+2)))& (0+255)
  2191     0C1F  0084               	movwf	4
  2192     0C20  1383               	bcf	3,7	;select IRP bank1
  2193     0C21  0800               	movf	0,w
  2194     0C22  00F6               	movwf	clcd_print@str
  2195     0C23  0A84               	incf	4,f
  2196     0C24  0800               	movf	0,w
  2197     0C25  0384               	decf	4,f
  2198     0C26  00F7               	movwf	clcd_print@str+1
  2199     0C27  3092               	movlw	146
  2200     0C28  00F8               	movwf	clcd_print@addr
  2201     0C29  160A  118A  25F2  120A  158A  	fcall	_clcd_print
  2202                           
  2203                           ;../Washing_machine_simulator-using-PIC16F877A-main/main.c: 250:         clcd_print(wate
      +                          r_level_arr[0],(0xD0 + 2));
  2204     0C2E  1683               	bsf	3,5	;RP0=1, select bank1
  2205     0C2F  1303               	bcf	3,6	;RP1=0, select bank1
  2206     0C30  0838               	movf	_water_level_arr^(0+128),w
  2207     0C31  00F6               	movwf	clcd_print@str
  2208     0C32  0839               	movf	(_water_level_arr+1)^(0+128),w
  2209     0C33  00F7               	movwf	clcd_print@str+1
  2210     0C34  30D2               	movlw	210
  2211     0C35  00F8               	movwf	clcd_print@addr
  2212     0C36  160A  118A  25F2  120A  158A  	fcall	_clcd_print
  2213                           
  2214                           ;../Washing_machine_simulator-using-PIC16F877A-main/main.c: 251:     }
  2215     0C3B  2C71               	goto	l208
  2216     0C3C                     l4065:
  2217     0C3C  3004               	movlw	4
  2218     0C3D  0679               	xorwf	_water_level_index,w
  2219     0C3E  1D03               	btfss	3,2
  2220     0C3F  2C41               	goto	u5581
  2221     0C40  2C42               	goto	u5580
  2222     0C41                     u5581:
  2223     0C41  2C71               	goto	l208
  2224     0C42                     u5580:
  2225     0C42                     l4067:
  2226                           
  2227                           ;../Washing_machine_simulator-using-PIC16F877A-main/main.c: 253:     {;../Washing_machin
      +                          e_simulator-using-PIC16F877A-main/main.c: 254:         clcd_print(water_level_arr[water_
      +                          level_index], (0xC0 + 2));
  2228     0C42  0879               	movf	_water_level_index,w
  2229     0C43  1283               	bcf	3,5	;RP0=0, select bank0
  2230     0C44  1303               	bcf	3,6	;RP1=0, select bank0
  2231     0C45  00A5               	movwf	??_water_level_display
  2232     0C46  0725               	addwf	??_water_level_display,w
  2233     0C47  3EB8               	addlw	(low (_water_level_arr| 0))& (0+255)
  2234     0C48  0084               	movwf	4
  2235     0C49  1383               	bcf	3,7	;select IRP bank1
  2236     0C4A  0800               	movf	0,w
  2237     0C4B  00F6               	movwf	clcd_print@str
  2238     0C4C  0A84               	incf	4,f
  2239     0C4D  0800               	movf	0,w
  2240     0C4E  0384               	decf	4,f
  2241     0C4F  00F7               	movwf	clcd_print@str+1
  2242     0C50  30C2               	movlw	194
  2243     0C51  00F8               	movwf	clcd_print@addr
  2244     0C52  160A  118A  25F2  120A  158A  	fcall	_clcd_print
  2245                           
  2246                           ;../Washing_machine_simulator-using-PIC16F877A-main/main.c: 255:         clcd_print(wate
      +                          r_level_arr[0], (0x90 + 2));
  2247     0C57  1683               	bsf	3,5	;RP0=1, select bank1
  2248     0C58  1303               	bcf	3,6	;RP1=0, select bank1
  2249     0C59  0838               	movf	_water_level_arr^(0+128),w
  2250     0C5A  00F6               	movwf	clcd_print@str
  2251     0C5B  0839               	movf	(_water_level_arr+1)^(0+128),w
  2252     0C5C  00F7               	movwf	clcd_print@str+1
  2253     0C5D  3092               	movlw	146
  2254     0C5E  00F8               	movwf	clcd_print@addr
  2255     0C5F  160A  118A  25F2  120A  158A  	fcall	_clcd_print
  2256                           
  2257                           ;../Washing_machine_simulator-using-PIC16F877A-main/main.c: 256:         clcd_print(wate
      +                          r_level_arr[1], (0xD0 + 2));
  2258     0C64  1683               	bsf	3,5	;RP0=1, select bank1
  2259     0C65  1303               	bcf	3,6	;RP1=0, select bank1
  2260     0C66  083A               	movf	(low ((_water_level_arr| 0+2)))^(0+128),w
  2261     0C67  00F6               	movwf	clcd_print@str
  2262     0C68  083B               	movf	((low ((_water_level_arr| 0+2))+1))^(0+128),w
  2263     0C69  00F7               	movwf	clcd_print@str+1
  2264     0C6A  30D2               	movlw	210
  2265     0C6B  00F8               	movwf	clcd_print@addr
  2266     0C6C  160A  118A  25F2  120A  158A  	fcall	_clcd_print
  2267     0C71                     l208:
  2268     0C71  0008               	return
  2269     0C72                     __end_of_water_level_display:
  2270                           
  2271                           	psect	text2
  2272     0A86                     __ptext2:	
  2273 ;; *************** function _washing_program_display *****************
  2274 ;; Defined at:
  2275 ;;		line 159 in file "../Washing_machine_simulator-using-PIC16F877A-main/main.c"
  2276 ;; Parameters:    Size  Location     Type
  2277 ;;  key             1    wreg     unsigned char 
  2278 ;; Auto vars:     Size  Location     Type
  2279 ;;  key             1    7[BANK0 ] unsigned char 
  2280 ;; Return value:  Size  Location     Type
  2281 ;;                  1    wreg      void 
  2282 ;; Registers used:
  2283 ;;		wreg, fsr0l, fsr0h, status,2, status,0, btemp+1, pclath, cstack
  2284 ;; Tracked objects:
  2285 ;;		On entry : 0/0
  2286 ;;		On exit  : 0/0
  2287 ;;		Unchanged: 0/0
  2288 ;; Data sizes:     COMMON   BANK0   BANK1   BANK3   BANK2
  2289 ;;      Params:         0       0       0       0       0
  2290 ;;      Locals:         0       1       0       0       0
  2291 ;;      Temps:          0       2       0       0       0
  2292 ;;      Totals:         0       3       0       0       0
  2293 ;;Total ram usage:        3 bytes
  2294 ;; Hardware stack levels used: 1
  2295 ;; Hardware stack levels required when called: 3
  2296 ;; This function calls:
  2297 ;;		_clcd_print
  2298 ;;		_clcd_putch
  2299 ;;		_clear_screen
  2300 ;; This function is called by:
  2301 ;;		_main
  2302 ;; This function uses a non-reentrant model
  2303 ;;
  2304                           
  2305     0A86                     _washing_program_display:	
  2306                           ;psect for function _washing_program_display
  2307                           
  2308                           
  2309                           ;incstack = 0
  2310                           ; Regs used in _washing_program_display: [wreg-fsr0h+status,2+status,0+btemp+1+pclath+cs
      +                          tack]
  2311                           ;washing_program_display@key stored from wreg
  2312     0A86  1283               	bcf	3,5	;RP0=0, select bank0
  2313     0A87  1303               	bcf	3,6	;RP1=0, select bank0
  2314     0A88  00A7               	movwf	washing_program_display@key
  2315     0A89                     l4005:
  2316                           
  2317                           ;../Washing_machine_simulator-using-PIC16F877A-main/main.c: 159: void washing_program_di
      +                          splay(unsigned char key);../Washing_machine_simulator-using-PIC16F877A-main/main.c: 160:
      +                           {;../Washing_machine_simulator-using-PIC16F877A-main/main.c: 161:     if( reset_mode ==
      +                           0x10)
  2318     0A89  3010               	movlw	16
  2319     0A8A  1683               	bsf	3,5	;RP0=1, select bank1
  2320     0A8B  1303               	bcf	3,6	;RP1=0, select bank1
  2321     0A8C  0649               	xorwf	_reset_mode^(0+128),w
  2322     0A8D  1D03               	btfss	3,2
  2323     0A8E  2A90               	goto	u5471
  2324     0A8F  2A91               	goto	u5470
  2325     0A90                     u5471:
  2326     0A90  2A97               	goto	l4011
  2327     0A91                     u5470:
  2328     0A91                     l4007:
  2329                           
  2330                           ;../Washing_machine_simulator-using-PIC16F877A-main/main.c: 162:     {;../Washing_machin
      +                          e_simulator-using-PIC16F877A-main/main.c: 163:         clear_screen();
  2331     0A91  160A  118A  251E  120A  158A  	fcall	_clear_screen
  2332     0A96                     l4009:
  2333                           
  2334                           ;../Washing_machine_simulator-using-PIC16F877A-main/main.c: 164:         program_no = 0;
  2335     0A96  01FA               	clrf	_program_no
  2336     0A97                     l4011:
  2337                           
  2338                           ;../Washing_machine_simulator-using-PIC16F877A-main/main.c: 166:     if (key == 0x37)
  2339     0A97  3037               	movlw	55
  2340     0A98  1283               	bcf	3,5	;RP0=0, select bank0
  2341     0A99  1303               	bcf	3,6	;RP1=0, select bank0
  2342     0A9A  0627               	xorwf	washing_program_display@key,w
  2343     0A9B  1D03               	btfss	3,2
  2344     0A9C  2A9E               	goto	u5481
  2345     0A9D  2A9F               	goto	u5480
  2346     0A9E                     u5481:
  2347     0A9E  2AAF               	goto	l4021
  2348     0A9F                     u5480:
  2349     0A9F                     l4013:
  2350                           
  2351                           ;../Washing_machine_simulator-using-PIC16F877A-main/main.c: 167:     {;../Washing_machin
      +                          e_simulator-using-PIC16F877A-main/main.c: 168:        program_no++;
  2352     0A9F  3001               	movlw	1
  2353     0AA0  00FF               	movwf	btemp+1
  2354     0AA1  087F               	movf	btemp+1,w
  2355     0AA2  07FA               	addwf	_program_no,f
  2356     0AA3                     l4015:
  2357                           
  2358                           ;../Washing_machine_simulator-using-PIC16F877A-main/main.c: 169:        if( program_no =
      +                          = 12)
  2359     0AA3  300C               	movlw	12
  2360     0AA4  067A               	xorwf	_program_no,w
  2361     0AA5  1D03               	btfss	3,2
  2362     0AA6  2AA8               	goto	u5491
  2363     0AA7  2AA9               	goto	u5490
  2364     0AA8                     u5491:
  2365     0AA8  2AAA               	goto	l4019
  2366     0AA9                     u5490:
  2367     0AA9                     l4017:
  2368                           
  2369                           ;../Washing_machine_simulator-using-PIC16F877A-main/main.c: 170:               program_n
      +                          o = 0;
  2370     0AA9  01FA               	clrf	_program_no
  2371     0AAA                     l4019:
  2372                           
  2373                           ;../Washing_machine_simulator-using-PIC16F877A-main/main.c: 171:              clear_scre
      +                          en();
  2374     0AAA  160A  118A  251E  120A  158A  	fcall	_clear_screen
  2375     0AAF                     l4021:
  2376                           
  2377                           ;../Washing_machine_simulator-using-PIC16F877A-main/main.c: 186:     clcd_print("Washing
      +                           Program", (0x80 + 0));
  2378     0AAF  3076               	movlw	low (STR_26| (0+32768))
  2379     0AB0  00F6               	movwf	clcd_print@str
  2380     0AB1  3090               	movlw	high (STR_26| (0+32768))
  2381     0AB2  00F7               	movwf	clcd_print@str+1
  2382     0AB3  3080               	movlw	128
  2383     0AB4  00F8               	movwf	clcd_print@addr
  2384     0AB5  160A  118A  25F2  120A  158A  	fcall	_clcd_print
  2385     0ABA                     l4023:
  2386                           
  2387                           ;../Washing_machine_simulator-using-PIC16F877A-main/main.c: 187:     clcd_putch('*', (0x
      +                          C0 + 0));
  2388     0ABA  30C0               	movlw	192
  2389     0ABB  00F8               	movwf	clcd_putch@addr
  2390     0ABC  302A               	movlw	42
  2391     0ABD  120A  158A  2003  120A  158A  	fcall	_clcd_putch
  2392     0AC2                     l4025:
  2393                           
  2394                           ;../Washing_machine_simulator-using-PIC16F877A-main/main.c: 190:     if(program_no <= 9)
  2395     0AC2  300A               	movlw	10
  2396     0AC3  027A               	subwf	_program_no,w
  2397     0AC4  1803               	skipnc
  2398     0AC5  2AC7               	goto	u5501
  2399     0AC6  2AC8               	goto	u5500
  2400     0AC7                     u5501:
  2401     0AC7  2B08               	goto	l4029
  2402     0AC8                     u5500:
  2403     0AC8                     l4027:
  2404                           
  2405                           ;../Washing_machine_simulator-using-PIC16F877A-main/main.c: 191:     {;../Washing_machin
      +                          e_simulator-using-PIC16F877A-main/main.c: 192:           clcd_print(washing_prog[program
      +                          _no],(0xC0 + 2));
  2406     0AC8  087A               	movf	_program_no,w
  2407     0AC9  1283               	bcf	3,5	;RP0=0, select bank0
  2408     0ACA  1303               	bcf	3,6	;RP1=0, select bank0
  2409     0ACB  00A5               	movwf	??_washing_program_display
  2410     0ACC  0725               	addwf	??_washing_program_display,w
  2411     0ACD  3EA0               	addlw	(low (_washing_prog| 0))& (0+255)
  2412     0ACE  0084               	movwf	4
  2413     0ACF  1383               	bcf	3,7	;select IRP bank1
  2414     0AD0  0800               	movf	0,w
  2415     0AD1  00F6               	movwf	clcd_print@str
  2416     0AD2  0A84               	incf	4,f
  2417     0AD3  0800               	movf	0,w
  2418     0AD4  0384               	decf	4,f
  2419     0AD5  00F7               	movwf	clcd_print@str+1
  2420     0AD6  30C2               	movlw	194
  2421     0AD7  00F8               	movwf	clcd_print@addr
  2422     0AD8  160A  118A  25F2  120A  158A  	fcall	_clcd_print
  2423                           
  2424                           ;../Washing_machine_simulator-using-PIC16F877A-main/main.c: 193:           clcd_print(wa
      +                          shing_prog[program_no + 1],(0x90 + 2));
  2425     0ADD  087A               	movf	_program_no,w
  2426     0ADE  1283               	bcf	3,5	;RP0=0, select bank0
  2427     0ADF  1303               	bcf	3,6	;RP1=0, select bank0
  2428     0AE0  00A5               	movwf	??_washing_program_display
  2429     0AE1  0725               	addwf	??_washing_program_display,w
  2430     0AE2  3EA2               	addlw	(low ((_washing_prog| 0+2)))& (0+255)
  2431     0AE3  0084               	movwf	4
  2432     0AE4  1383               	bcf	3,7	;select IRP bank1
  2433     0AE5  0800               	movf	0,w
  2434     0AE6  00F6               	movwf	clcd_print@str
  2435     0AE7  0A84               	incf	4,f
  2436     0AE8  0800               	movf	0,w
  2437     0AE9  0384               	decf	4,f
  2438     0AEA  00F7               	movwf	clcd_print@str+1
  2439     0AEB  3092               	movlw	146
  2440     0AEC  00F8               	movwf	clcd_print@addr
  2441     0AED  160A  118A  25F2  120A  158A  	fcall	_clcd_print
  2442                           
  2443                           ;../Washing_machine_simulator-using-PIC16F877A-main/main.c: 194:           clcd_print(wa
      +                          shing_prog[program_no + 2],(0xD0 + 2));
  2444     0AF2  087A               	movf	_program_no,w
  2445     0AF3  1283               	bcf	3,5	;RP0=0, select bank0
  2446     0AF4  1303               	bcf	3,6	;RP1=0, select bank0
  2447     0AF5  00A5               	movwf	??_washing_program_display
  2448     0AF6  0725               	addwf	??_washing_program_display,w
  2449     0AF7  3EA4               	addlw	(low ((_washing_prog| 0+4)))& (0+255)
  2450     0AF8  0084               	movwf	4
  2451     0AF9  1383               	bcf	3,7	;select IRP bank1
  2452     0AFA  0800               	movf	0,w
  2453     0AFB  00F6               	movwf	clcd_print@str
  2454     0AFC  0A84               	incf	4,f
  2455     0AFD  0800               	movf	0,w
  2456     0AFE  0384               	decf	4,f
  2457     0AFF  00F7               	movwf	clcd_print@str+1
  2458     0B00  30D2               	movlw	210
  2459     0B01  00F8               	movwf	clcd_print@addr
  2460     0B02  160A  118A  25F2  120A  158A  	fcall	_clcd_print
  2461                           
  2462                           ;../Washing_machine_simulator-using-PIC16F877A-main/main.c: 195:     }
  2463     0B07  2B7B               	goto	l197
  2464     0B08                     l4029:
  2465     0B08  300A               	movlw	10
  2466     0B09  067A               	xorwf	_program_no,w
  2467     0B0A  1D03               	btfss	3,2
  2468     0B0B  2B0D               	goto	u5511
  2469     0B0C  2B0E               	goto	u5510
  2470     0B0D                     u5511:
  2471     0B0D  2B46               	goto	l4033
  2472     0B0E                     u5510:
  2473     0B0E                     l4031:
  2474                           
  2475                           ;../Washing_machine_simulator-using-PIC16F877A-main/main.c: 197:     {;../Washing_machin
      +                          e_simulator-using-PIC16F877A-main/main.c: 198:           clcd_print(washing_prog[program
      +                          _no],(0xC0 + 2));
  2476     0B0E  087A               	movf	_program_no,w
  2477     0B0F  1283               	bcf	3,5	;RP0=0, select bank0
  2478     0B10  1303               	bcf	3,6	;RP1=0, select bank0
  2479     0B11  00A5               	movwf	??_washing_program_display
  2480     0B12  0725               	addwf	??_washing_program_display,w
  2481     0B13  3EA0               	addlw	(low (_washing_prog| 0))& (0+255)
  2482     0B14  0084               	movwf	4
  2483     0B15  1383               	bcf	3,7	;select IRP bank1
  2484     0B16  0800               	movf	0,w
  2485     0B17  00F6               	movwf	clcd_print@str
  2486     0B18  0A84               	incf	4,f
  2487     0B19  0800               	movf	0,w
  2488     0B1A  0384               	decf	4,f
  2489     0B1B  00F7               	movwf	clcd_print@str+1
  2490     0B1C  30C2               	movlw	194
  2491     0B1D  00F8               	movwf	clcd_print@addr
  2492     0B1E  160A  118A  25F2  120A  158A  	fcall	_clcd_print
  2493                           
  2494                           ;../Washing_machine_simulator-using-PIC16F877A-main/main.c: 199:           clcd_print(wa
      +                          shing_prog[program_no + 1],(0x90 + 2));
  2495     0B23  087A               	movf	_program_no,w
  2496     0B24  1283               	bcf	3,5	;RP0=0, select bank0
  2497     0B25  1303               	bcf	3,6	;RP1=0, select bank0
  2498     0B26  00A5               	movwf	??_washing_program_display
  2499     0B27  0725               	addwf	??_washing_program_display,w
  2500     0B28  3EA2               	addlw	(low ((_washing_prog| 0+2)))& (0+255)
  2501     0B29  0084               	movwf	4
  2502     0B2A  1383               	bcf	3,7	;select IRP bank1
  2503     0B2B  0800               	movf	0,w
  2504     0B2C  00F6               	movwf	clcd_print@str
  2505     0B2D  0A84               	incf	4,f
  2506     0B2E  0800               	movf	0,w
  2507     0B2F  0384               	decf	4,f
  2508     0B30  00F7               	movwf	clcd_print@str+1
  2509     0B31  3092               	movlw	146
  2510     0B32  00F8               	movwf	clcd_print@addr
  2511     0B33  160A  118A  25F2  120A  158A  	fcall	_clcd_print
  2512                           
  2513                           ;../Washing_machine_simulator-using-PIC16F877A-main/main.c: 200:           clcd_print(wa
      +                          shing_prog[0],(0xD0 + 2));
  2514     0B38  1683               	bsf	3,5	;RP0=1, select bank1
  2515     0B39  1303               	bcf	3,6	;RP1=0, select bank1
  2516     0B3A  0820               	movf	_washing_prog^(0+128),w
  2517     0B3B  00F6               	movwf	clcd_print@str
  2518     0B3C  0821               	movf	(_washing_prog+1)^(0+128),w
  2519     0B3D  00F7               	movwf	clcd_print@str+1
  2520     0B3E  30D2               	movlw	210
  2521     0B3F  00F8               	movwf	clcd_print@addr
  2522     0B40  160A  118A  25F2  120A  158A  	fcall	_clcd_print
  2523                           
  2524                           ;../Washing_machine_simulator-using-PIC16F877A-main/main.c: 202:     }
  2525     0B45  2B7B               	goto	l197
  2526     0B46                     l4033:
  2527     0B46  300B               	movlw	11
  2528     0B47  067A               	xorwf	_program_no,w
  2529     0B48  1D03               	btfss	3,2
  2530     0B49  2B4B               	goto	u5521
  2531     0B4A  2B4C               	goto	u5520
  2532     0B4B                     u5521:
  2533     0B4B  2B7B               	goto	l197
  2534     0B4C                     u5520:
  2535     0B4C                     l4035:
  2536                           
  2537                           ;../Washing_machine_simulator-using-PIC16F877A-main/main.c: 204:     {;../Washing_machin
      +                          e_simulator-using-PIC16F877A-main/main.c: 205:           clcd_print(washing_prog[program
      +                          _no], (0xC0 + 2));
  2538     0B4C  087A               	movf	_program_no,w
  2539     0B4D  1283               	bcf	3,5	;RP0=0, select bank0
  2540     0B4E  1303               	bcf	3,6	;RP1=0, select bank0
  2541     0B4F  00A5               	movwf	??_washing_program_display
  2542     0B50  0725               	addwf	??_washing_program_display,w
  2543     0B51  3EA0               	addlw	(low (_washing_prog| 0))& (0+255)
  2544     0B52  0084               	movwf	4
  2545     0B53  1383               	bcf	3,7	;select IRP bank1
  2546     0B54  0800               	movf	0,w
  2547     0B55  00F6               	movwf	clcd_print@str
  2548     0B56  0A84               	incf	4,f
  2549     0B57  0800               	movf	0,w
  2550     0B58  0384               	decf	4,f
  2551     0B59  00F7               	movwf	clcd_print@str+1
  2552     0B5A  30C2               	movlw	194
  2553     0B5B  00F8               	movwf	clcd_print@addr
  2554     0B5C  160A  118A  25F2  120A  158A  	fcall	_clcd_print
  2555                           
  2556                           ;../Washing_machine_simulator-using-PIC16F877A-main/main.c: 206:           clcd_print(wa
      +                          shing_prog[0], (0x90 + 2));
  2557     0B61  1683               	bsf	3,5	;RP0=1, select bank1
  2558     0B62  1303               	bcf	3,6	;RP1=0, select bank1
  2559     0B63  0820               	movf	_washing_prog^(0+128),w
  2560     0B64  00F6               	movwf	clcd_print@str
  2561     0B65  0821               	movf	(_washing_prog+1)^(0+128),w
  2562     0B66  00F7               	movwf	clcd_print@str+1
  2563     0B67  3092               	movlw	146
  2564     0B68  00F8               	movwf	clcd_print@addr
  2565     0B69  160A  118A  25F2  120A  158A  	fcall	_clcd_print
  2566                           
  2567                           ;../Washing_machine_simulator-using-PIC16F877A-main/main.c: 207:           clcd_print(wa
      +                          shing_prog[1], (0xD0 + 2));
  2568     0B6E  1683               	bsf	3,5	;RP0=1, select bank1
  2569     0B6F  1303               	bcf	3,6	;RP1=0, select bank1
  2570     0B70  0822               	movf	(low ((_washing_prog| 0+2)))^(0+128),w
  2571     0B71  00F6               	movwf	clcd_print@str
  2572     0B72  0823               	movf	((low ((_washing_prog| 0+2))+1))^(0+128),w
  2573     0B73  00F7               	movwf	clcd_print@str+1
  2574     0B74  30D2               	movlw	210
  2575     0B75  00F8               	movwf	clcd_print@addr
  2576     0B76  160A  118A  25F2  120A  158A  	fcall	_clcd_print
  2577     0B7B                     l197:
  2578     0B7B  0008               	return
  2579     0B7C                     __end_of_washing_program_display:
  2580                           
  2581                           	psect	text3
  2582     099D                     __ptext3:	
  2583 ;; *************** function _set_time_for_program *****************
  2584 ;; Defined at:
  2585 ;;		line 260 in file "../Washing_machine_simulator-using-PIC16F877A-main/main.c"
  2586 ;; Parameters:    Size  Location     Type
  2587 ;;		None
  2588 ;; Auto vars:     Size  Location     Type
  2589 ;;		None
  2590 ;; Return value:  Size  Location     Type
  2591 ;;                  1    wreg      void 
  2592 ;; Registers used:
  2593 ;;		wreg, fsr0l, fsr0h, status,2, status,0
  2594 ;; Tracked objects:
  2595 ;;		On entry : 0/0
  2596 ;;		On exit  : 0/0
  2597 ;;		Unchanged: 0/0
  2598 ;; Data sizes:     COMMON   BANK0   BANK1   BANK3   BANK2
  2599 ;;      Params:         0       0       0       0       0
  2600 ;;      Locals:         0       0       0       0       0
  2601 ;;      Temps:          0       0       0       0       0
  2602 ;;      Totals:         0       0       0       0       0
  2603 ;;Total ram usage:        0 bytes
  2604 ;; Hardware stack levels used: 1
  2605 ;; Hardware stack levels required when called: 1
  2606 ;; This function calls:
  2607 ;;		Nothing
  2608 ;; This function is called by:
  2609 ;;		_main
  2610 ;; This function uses a non-reentrant model
  2611 ;;
  2612                           
  2613     099D                     _set_time_for_program:	
  2614                           ;psect for function _set_time_for_program
  2615                           
  2616     099D                     l3509:	
  2617                           ;incstack = 0
  2618                           ; Regs used in _set_time_for_program: [wreg-fsr0h+status,2+status,0]
  2619                           
  2620                           
  2621                           ;../Washing_machine_simulator-using-PIC16F877A-main/main.c: 262:     switch(program_no)
  2622     099D  2A5F               	goto	l3595
  2623     099E                     l3511:
  2624                           
  2625                           ;../Washing_machine_simulator-using-PIC16F877A-main/main.c: 269:                 sec = 3
      +                          3;
  2626     099E  3021               	movlw	33
  2627     099F  00FB               	movwf	_sec
  2628     09A0                     l3513:
  2629                           
  2630                           ;../Washing_machine_simulator-using-PIC16F877A-main/main.c: 270:                 min = 0
      +                          ;
  2631     09A0  1283               	bcf	3,5	;RP0=0, select bank0
  2632     09A1  1303               	bcf	3,6	;RP1=0, select bank0
  2633     09A2  01EA               	clrf	_min
  2634                           
  2635                           ;../Washing_machine_simulator-using-PIC16F877A-main/main.c: 271:             break;
  2636     09A3  2A85               	goto	l267
  2637     09A4                     l3515:
  2638                           
  2639                           ;../Washing_machine_simulator-using-PIC16F877A-main/main.c: 274:                 sec = 4
      +                          1;
  2640     09A4  3029               	movlw	41
  2641     09A5  00FB               	movwf	_sec
  2642     09A6  29A0               	goto	l3513
  2643     09A7                     l3519:
  2644                           
  2645                           ;../Washing_machine_simulator-using-PIC16F877A-main/main.c: 279:                 sec = 4
      +                          5;
  2646     09A7  302D               	movlw	45
  2647     09A8  00FB               	movwf	_sec
  2648     09A9  29A0               	goto	l3513
  2649     09AA                     l3523:
  2650     09AA  0879               	movf	_water_level_index,w
  2651                           
  2652                           ; Switch size 1, requested type "simple"
  2653                           ; Number of cases is 5, Range of values is 0 to 4
  2654                           ; switch strategies available:
  2655                           ; Name         Instructions Cycles
  2656                           ; simple_byte           16     9 (average)
  2657                           ; direct_byte           23     8 (fixed)
  2658                           ; jumptable            260     6 (fixed)
  2659                           ;	Chosen strategy is simple_byte
  2660     09AB  3A00               	xorlw	0	; case 0
  2661     09AC  1903               	skipnz
  2662     09AD  29A4               	goto	l3515
  2663     09AE  3A01               	xorlw	1	; case 1
  2664     09AF  1903               	skipnz
  2665     09B0  299E               	goto	l3511
  2666     09B1  3A03               	xorlw	3	; case 2
  2667     09B2  1903               	skipnz
  2668     09B3  29A4               	goto	l3515
  2669     09B4  3A01               	xorlw	1	; case 3
  2670     09B5  1903               	skipnz
  2671     09B6  29A7               	goto	l3519
  2672     09B7  3A07               	xorlw	7	; case 4
  2673     09B8  1903               	skipnz
  2674     09B9  29A7               	goto	l3519
  2675     09BA  2A85               	goto	l267
  2676     09BB                     l3525:
  2677                           
  2678                           ;../Washing_machine_simulator-using-PIC16F877A-main/main.c: 288:          sec = 43;
  2679     09BB  302B               	movlw	43
  2680     09BC  00FB               	movwf	_sec
  2681     09BD                     l3527:
  2682                           
  2683                           ;../Washing_machine_simulator-using-PIC16F877A-main/main.c: 289:          min = 0;
  2684     09BD  1283               	bcf	3,5	;RP0=0, select bank0
  2685     09BE  1303               	bcf	3,6	;RP1=0, select bank0
  2686     09BF  01EA               	clrf	_min
  2687     09C0                     l3529:
  2688                           
  2689                           ;../Washing_machine_simulator-using-PIC16F877A-main/main.c: 292:         sec = 50;
  2690     09C0  3032               	movlw	50
  2691     09C1  00FB               	movwf	_sec
  2692                           
  2693                           ;../Washing_machine_simulator-using-PIC16F877A-main/main.c: 293:         min = 0;
  2694     09C2  1283               	bcf	3,5	;RP0=0, select bank0
  2695     09C3  1303               	bcf	3,6	;RP1=0, select bank0
  2696     09C4  01EA               	clrf	_min
  2697                           
  2698                           ;../Washing_machine_simulator-using-PIC16F877A-main/main.c: 294:         break;
  2699     09C5  2A85               	goto	l267
  2700     09C6                     l3531:
  2701                           
  2702                           ;../Washing_machine_simulator-using-PIC16F877A-main/main.c: 297:         sec = 57;
  2703     09C6  3039               	movlw	57
  2704     09C7  00FB               	movwf	_sec
  2705     09C8  29A0               	goto	l3513
  2706     09C9                     l3535:
  2707     09C9  0879               	movf	_water_level_index,w
  2708                           
  2709                           ; Switch size 1, requested type "simple"
  2710                           ; Number of cases is 5, Range of values is 0 to 4
  2711                           ; switch strategies available:
  2712                           ; Name         Instructions Cycles
  2713                           ; simple_byte           16     9 (average)
  2714                           ; direct_byte           23     8 (fixed)
  2715                           ; jumptable            260     6 (fixed)
  2716                           ;	Chosen strategy is simple_byte
  2717     09CA  3A00               	xorlw	0	; case 0
  2718     09CB  1903               	skipnz
  2719     09CC  29C0               	goto	l3529
  2720     09CD  3A01               	xorlw	1	; case 1
  2721     09CE  1903               	skipnz
  2722     09CF  29BB               	goto	l3525
  2723     09D0  3A03               	xorlw	3	; case 2
  2724     09D1  1903               	skipnz
  2725     09D2  29C0               	goto	l3529
  2726     09D3  3A01               	xorlw	1	; case 3
  2727     09D4  1903               	skipnz
  2728     09D5  29C6               	goto	l3531
  2729     09D6  3A07               	xorlw	7	; case 4
  2730     09D7  1903               	skipnz
  2731     09D8  29C6               	goto	l3531
  2732     09D9  2A85               	goto	l267
  2733     09DA                     l3537:
  2734                           
  2735                           ;../Washing_machine_simulator-using-PIC16F877A-main/main.c: 308:                     sec
      +                           = 26;
  2736     09DA  301A               	movlw	26
  2737     09DB  00FB               	movwf	_sec
  2738     09DC  29A0               	goto	l3513
  2739     09DD                     l3541:
  2740                           
  2741                           ;../Washing_machine_simulator-using-PIC16F877A-main/main.c: 313:                 sec = 3
      +                          1;
  2742     09DD  301F               	movlw	31
  2743     09DE  00FB               	movwf	_sec
  2744     09DF  29A0               	goto	l3513
  2745     09E0                     l3545:
  2746     09E0  0879               	movf	_water_level_index,w
  2747                           
  2748                           ; Switch size 1, requested type "simple"
  2749                           ; Number of cases is 5, Range of values is 0 to 4
  2750                           ; switch strategies available:
  2751                           ; Name         Instructions Cycles
  2752                           ; simple_byte           16     9 (average)
  2753                           ; direct_byte           23     8 (fixed)
  2754                           ; jumptable            260     6 (fixed)
  2755                           ;	Chosen strategy is simple_byte
  2756     09E1  3A00               	xorlw	0	; case 0
  2757     09E2  1903               	skipnz
  2758     09E3  29DA               	goto	l3537
  2759     09E4  3A01               	xorlw	1	; case 1
  2760     09E5  1903               	skipnz
  2761     09E6  29DA               	goto	l3537
  2762     09E7  3A03               	xorlw	3	; case 2
  2763     09E8  1903               	skipnz
  2764     09E9  29DA               	goto	l3537
  2765     09EA  3A01               	xorlw	1	; case 3
  2766     09EB  1903               	skipnz
  2767     09EC  29DD               	goto	l3541
  2768     09ED  3A07               	xorlw	7	; case 4
  2769     09EE  1903               	skipnz
  2770     09EF  29DD               	goto	l3541
  2771     09F0  2A85               	goto	l267
  2772     09F1                     l3547:
  2773                           
  2774                           ;../Washing_machine_simulator-using-PIC16F877A-main/main.c: 318:             sec = 16;
  2775     09F1  3010               	movlw	16
  2776     09F2  00FB               	movwf	_sec
  2777     09F3                     l3549:
  2778                           
  2779                           ;../Washing_machine_simulator-using-PIC16F877A-main/main.c: 319:             min =1;
  2780     09F3  1283               	bcf	3,5	;RP0=0, select bank0
  2781     09F4  1303               	bcf	3,6	;RP1=0, select bank0
  2782     09F5  01EA               	clrf	_min
  2783     09F6  0AEA               	incf	_min,f
  2784                           
  2785                           ;../Washing_machine_simulator-using-PIC16F877A-main/main.c: 320:             break;
  2786     09F7  2A85               	goto	l267
  2787     09F8                     l3551:
  2788                           
  2789                           ;../Washing_machine_simulator-using-PIC16F877A-main/main.c: 323:             sec = 36;
  2790     09F8  3024               	movlw	36
  2791     09F9  00FB               	movwf	_sec
  2792     09FA                     l3553:
  2793                           
  2794                           ;../Washing_machine_simulator-using-PIC16F877A-main/main.c: 324:             min = 1;
  2795     09FA  1283               	bcf	3,5	;RP0=0, select bank0
  2796     09FB  1303               	bcf	3,6	;RP1=0, select bank0
  2797     09FC  01EA               	clrf	_min
  2798     09FD  0AEA               	incf	_min,f
  2799     09FE                     l239:	
  2800                           ;../Washing_machine_simulator-using-PIC16F877A-main/main.c: 325:         case 5:
  2801                           
  2802                           
  2803                           ;../Washing_machine_simulator-using-PIC16F877A-main/main.c: 326:             sec = 28;
  2804     09FE  301C               	movlw	28
  2805     09FF  00FB               	movwf	_sec
  2806     0A00  29A0               	goto	l3513
  2807     0A01                     l3557:
  2808                           
  2809                           ;../Washing_machine_simulator-using-PIC16F877A-main/main.c: 330:             sec = 29;
  2810     0A01  301D               	movlw	29
  2811     0A02  00FB               	movwf	_sec
  2812                           
  2813                           ;../Washing_machine_simulator-using-PIC16F877A-main/main.c: 331:             break;
  2814     0A03  2A85               	goto	l267
  2815     0A04                     l3559:
  2816                           
  2817                           ;../Washing_machine_simulator-using-PIC16F877A-main/main.c: 337:                 sec = 4
      +                          6;
  2818     0A04  302E               	movlw	46
  2819     0A05  00FB               	movwf	_sec
  2820     0A06                     l3561:
  2821                           
  2822                           ;../Washing_machine_simulator-using-PIC16F877A-main/main.c: 338:                 min = 0
      +                          ;
  2823     0A06  1283               	bcf	3,5	;RP0=0, select bank0
  2824     0A07  1303               	bcf	3,6	;RP1=0, select bank0
  2825     0A08  01EA               	clrf	_min
  2826     0A09                     l3563:
  2827                           
  2828                           ;../Washing_machine_simulator-using-PIC16F877A-main/main.c: 341:                     sec
      +                           = 53;
  2829     0A09  3035               	movlw	53
  2830     0A0A  00FB               	movwf	_sec
  2831                           
  2832                           ;../Washing_machine_simulator-using-PIC16F877A-main/main.c: 342:                     min
      +                           = 0;
  2833     0A0B  1283               	bcf	3,5	;RP0=0, select bank0
  2834     0A0C  1303               	bcf	3,6	;RP1=0, select bank0
  2835     0A0D  01EA               	clrf	_min
  2836                           
  2837                           ;../Washing_machine_simulator-using-PIC16F877A-main/main.c: 343:                     bre
      +                          ak;
  2838     0A0E  2A85               	goto	l267
  2839     0A0F                     l3565:
  2840                           
  2841                           ;../Washing_machine_simulator-using-PIC16F877A-main/main.c: 346:                     sec
      +                           = 60;
  2842     0A0F  303C               	movlw	60
  2843     0A10  00FB               	movwf	_sec
  2844     0A11  29A0               	goto	l3513
  2845     0A12                     l3569:
  2846     0A12  0879               	movf	_water_level_index,w
  2847                           
  2848                           ; Switch size 1, requested type "simple"
  2849                           ; Number of cases is 5, Range of values is 0 to 4
  2850                           ; switch strategies available:
  2851                           ; Name         Instructions Cycles
  2852                           ; simple_byte           16     9 (average)
  2853                           ; direct_byte           23     8 (fixed)
  2854                           ; jumptable            260     6 (fixed)
  2855                           ;	Chosen strategy is simple_byte
  2856     0A13  3A00               	xorlw	0	; case 0
  2857     0A14  1903               	skipnz
  2858     0A15  2A09               	goto	l3563
  2859     0A16  3A01               	xorlw	1	; case 1
  2860     0A17  1903               	skipnz
  2861     0A18  2A04               	goto	l3559
  2862     0A19  3A03               	xorlw	3	; case 2
  2863     0A1A  1903               	skipnz
  2864     0A1B  2A09               	goto	l3563
  2865     0A1C  3A01               	xorlw	1	; case 3
  2866     0A1D  1903               	skipnz
  2867     0A1E  2A0F               	goto	l3565
  2868     0A1F  3A07               	xorlw	7	; case 4
  2869     0A20  1903               	skipnz
  2870     0A21  2A0F               	goto	l3565
  2871     0A22  2A85               	goto	l267
  2872     0A23                     l3571:
  2873                           
  2874                           ;../Washing_machine_simulator-using-PIC16F877A-main/main.c: 355:                     sec
      +                           = 18;
  2875     0A23  3012               	movlw	18
  2876     0A24  00FB               	movwf	_sec
  2877     0A25                     l3573:
  2878                           
  2879                           ;../Washing_machine_simulator-using-PIC16F877A-main/main.c: 356:                     min
      +                           = 0;
  2880     0A25  1283               	bcf	3,5	;RP0=0, select bank0
  2881     0A26  1303               	bcf	3,6	;RP1=0, select bank0
  2882     0A27  01EA               	clrf	_min
  2883     0A28  2A29               	goto	l3575
  2884     0A29                     l254:	
  2885                           ;../Washing_machine_simulator-using-PIC16F877A-main/main.c: 359:                 case 3:
  2886                           
  2887     0A29                     l3575:
  2888                           
  2889                           ;../Washing_machine_simulator-using-PIC16F877A-main/main.c: 361:                     sec
      +                           = 20;
  2890     0A29  3014               	movlw	20
  2891     0A2A  00FB               	movwf	_sec
  2892                           
  2893                           ;../Washing_machine_simulator-using-PIC16F877A-main/main.c: 362:                     min
      +                           = 0;
  2894     0A2B  1283               	bcf	3,5	;RP0=0, select bank0
  2895     0A2C  1303               	bcf	3,6	;RP1=0, select bank0
  2896     0A2D  01EA               	clrf	_min
  2897                           
  2898                           ;../Washing_machine_simulator-using-PIC16F877A-main/main.c: 363:             }
  2899     0A2E  2A85               	goto	l267
  2900     0A2F                     l3577:
  2901     0A2F  0879               	movf	_water_level_index,w
  2902                           
  2903                           ; Switch size 1, requested type "simple"
  2904                           ; Number of cases is 5, Range of values is 0 to 4
  2905                           ; switch strategies available:
  2906                           ; Name         Instructions Cycles
  2907                           ; simple_byte           16     9 (average)
  2908                           ; direct_byte           23     8 (fixed)
  2909                           ; jumptable            260     6 (fixed)
  2910                           ;	Chosen strategy is simple_byte
  2911     0A30  3A00               	xorlw	0	; case 0
  2912     0A31  1903               	skipnz
  2913     0A32  2A29               	goto	l254
  2914     0A33  3A01               	xorlw	1	; case 1
  2915     0A34  1903               	skipnz
  2916     0A35  2A23               	goto	l3571
  2917     0A36  3A03               	xorlw	3	; case 2
  2918     0A37  1903               	skipnz
  2919     0A38  2A29               	goto	l3575
  2920     0A39  3A01               	xorlw	1	; case 3
  2921     0A3A  1903               	skipnz
  2922     0A3B  2A29               	goto	l3575
  2923     0A3C  3A07               	xorlw	7	; case 4
  2924     0A3D  1903               	skipnz
  2925     0A3E  2A29               	goto	l3575
  2926     0A3F  2A85               	goto	l267
  2927     0A40                     l3579:
  2928                           
  2929                           ;../Washing_machine_simulator-using-PIC16F877A-main/main.c: 366:             sec = 6;
  2930     0A40  3006               	movlw	6
  2931     0A41  00FB               	movwf	_sec
  2932                           
  2933                           ;../Washing_machine_simulator-using-PIC16F877A-main/main.c: 367:             break;
  2934     0A42  2A85               	goto	l267
  2935     0A43                     l3581:
  2936                           
  2937                           ;../Washing_machine_simulator-using-PIC16F877A-main/main.c: 374:                     sec
      +                           = 16;
  2938     0A43  3010               	movlw	16
  2939     0A44  00FB               	movwf	_sec
  2940     0A45                     l3583:
  2941                           
  2942                           ;../Washing_machine_simulator-using-PIC16F877A-main/main.c: 375:                     min
      +                           = 0;
  2943     0A45  1283               	bcf	3,5	;RP0=0, select bank0
  2944     0A46  1303               	bcf	3,6	;RP1=0, select bank0
  2945     0A47  01EA               	clrf	_min
  2946     0A48                     l3585:
  2947                           
  2948                           ;../Washing_machine_simulator-using-PIC16F877A-main/main.c: 378:                     sec
      +                           = 21;
  2949     0A48  3015               	movlw	21
  2950     0A49  00FB               	movwf	_sec
  2951                           
  2952                           ;../Washing_machine_simulator-using-PIC16F877A-main/main.c: 379:                     min
      +                           = 0;
  2953     0A4A  1283               	bcf	3,5	;RP0=0, select bank0
  2954     0A4B  1303               	bcf	3,6	;RP1=0, select bank0
  2955     0A4C  01EA               	clrf	_min
  2956                           
  2957                           ;../Washing_machine_simulator-using-PIC16F877A-main/main.c: 380:                     bre
      +                          ak;
  2958     0A4D  2A85               	goto	l267
  2959     0A4E                     l3591:
  2960     0A4E  0879               	movf	_water_level_index,w
  2961                           
  2962                           ; Switch size 1, requested type "simple"
  2963                           ; Number of cases is 5, Range of values is 0 to 4
  2964                           ; switch strategies available:
  2965                           ; Name         Instructions Cycles
  2966                           ; simple_byte           16     9 (average)
  2967                           ; direct_byte           23     8 (fixed)
  2968                           ; jumptable            260     6 (fixed)
  2969                           ;	Chosen strategy is simple_byte
  2970     0A4F  3A00               	xorlw	0	; case 0
  2971     0A50  1903               	skipnz
  2972     0A51  2A48               	goto	l3585
  2973     0A52  3A01               	xorlw	1	; case 1
  2974     0A53  1903               	skipnz
  2975     0A54  2A43               	goto	l3581
  2976     0A55  3A03               	xorlw	3	; case 2
  2977     0A56  1903               	skipnz
  2978     0A57  2A48               	goto	l3585
  2979     0A58  3A01               	xorlw	1	; case 3
  2980     0A59  1903               	skipnz
  2981     0A5A  29DA               	goto	l3537
  2982     0A5B  3A07               	xorlw	7	; case 4
  2983     0A5C  1903               	skipnz
  2984     0A5D  29DA               	goto	l3537
  2985     0A5E  2A85               	goto	l267
  2986     0A5F                     l3595:
  2987     0A5F  087A               	movf	_program_no,w
  2988                           
  2989                           ; Switch size 1, requested type "simple"
  2990                           ; Number of cases is 12, Range of values is 0 to 11
  2991                           ; switch strategies available:
  2992                           ; Name         Instructions Cycles
  2993                           ; simple_byte           37    19 (average)
  2994                           ; direct_byte           44     8 (fixed)
  2995                           ; jumptable            260     6 (fixed)
  2996                           ;	Chosen strategy is simple_byte
  2997     0A60  3A00               	xorlw	0	; case 0
  2998     0A61  1903               	skipnz
  2999     0A62  29AA               	goto	l3523
  3000     0A63  3A01               	xorlw	1	; case 1
  3001     0A64  1903               	skipnz
  3002     0A65  29C9               	goto	l3535
  3003     0A66  3A03               	xorlw	3	; case 2
  3004     0A67  1903               	skipnz
  3005     0A68  29E0               	goto	l3545
  3006     0A69  3A01               	xorlw	1	; case 3
  3007     0A6A  1903               	skipnz
  3008     0A6B  29F1               	goto	l3547
  3009     0A6C  3A07               	xorlw	7	; case 4
  3010     0A6D  1903               	skipnz
  3011     0A6E  29F8               	goto	l3551
  3012     0A6F  3A01               	xorlw	1	; case 5
  3013     0A70  1903               	skipnz
  3014     0A71  29FE               	goto	l239
  3015     0A72  3A03               	xorlw	3	; case 6
  3016     0A73  1903               	skipnz
  3017     0A74  2A01               	goto	l3557
  3018     0A75  3A01               	xorlw	1	; case 7
  3019     0A76  1903               	skipnz
  3020     0A77  2A12               	goto	l3569
  3021     0A78  3A0F               	xorlw	15	; case 8
  3022     0A79  1903               	skipnz
  3023     0A7A  2A2F               	goto	l3577
  3024     0A7B  3A01               	xorlw	1	; case 9
  3025     0A7C  1903               	skipnz
  3026     0A7D  2A40               	goto	l3579
  3027     0A7E  3A03               	xorlw	3	; case 10
  3028     0A7F  1903               	skipnz
  3029     0A80  2A4E               	goto	l3591
  3030     0A81  3A01               	xorlw	1	; case 11
  3031     0A82  1903               	skipnz
  3032     0A83  2A4E               	goto	l3591
  3033     0A84  2A85               	goto	l267
  3034     0A85                     l267:
  3035     0A85  0008               	return
  3036     0A86                     __end_of_set_time_for_program:
  3037                           
  3038                           	psect	text4
  3039     003D                     __ptext4:	
  3040 ;; *************** function _run_program *****************
  3041 ;; Defined at:
  3042 ;;		line 423 in file "../Washing_machine_simulator-using-PIC16F877A-main/main.c"
  3043 ;; Parameters:    Size  Location     Type
  3044 ;;  key             1    wreg     unsigned char 
  3045 ;; Auto vars:     Size  Location     Type
  3046 ;;  key             1   63[BANK0 ] unsigned char 
  3047 ;; Return value:  Size  Location     Type
  3048 ;;                  1    wreg      void 
  3049 ;; Registers used:
  3050 ;;		wreg, fsr0l, fsr0h, status,2, status,0, btemp+1, pclath, cstack
  3051 ;; Tracked objects:
  3052 ;;		On entry : 0/0
  3053 ;;		On exit  : 0/0
  3054 ;;		Unchanged: 0/0
  3055 ;; Data sizes:     COMMON   BANK0   BANK1   BANK3   BANK2
  3056 ;;      Params:         0       0       0       0       0
  3057 ;;      Locals:         0       1       0       0       0
  3058 ;;      Temps:          0       7       0       0       0
  3059 ;;      Totals:         0       8       0       0       0
  3060 ;;Total ram usage:        8 bytes
  3061 ;; Hardware stack levels used: 1
  3062 ;; Hardware stack levels required when called: 4
  3063 ;; This function calls:
  3064 ;;		___awdiv
  3065 ;;		___awmod
  3066 ;;		___flge
  3067 ;;		___flmul
  3068 ;;		___flsub
  3069 ;;		___fltol
  3070 ;;		___wmul
  3071 ;;		___xxtofl
  3072 ;;		_clcd_print
  3073 ;;		_clcd_putch
  3074 ;;		_clear_screen
  3075 ;;		_door_status_check
  3076 ;; This function is called by:
  3077 ;;		_main
  3078 ;; This function uses a non-reentrant model
  3079 ;;
  3080                           
  3081     003D                     _run_program:	
  3082                           ;psect for function _run_program
  3083                           
  3084                           
  3085                           ;incstack = 0
  3086                           ; Regs used in _run_program: [wreg-fsr0h+status,2+status,0+btemp+1+pclath+cstack]
  3087                           ;run_program@key stored from wreg
  3088     003D  1283               	bcf	3,5	;RP0=0, select bank0
  3089     003E  1303               	bcf	3,6	;RP1=0, select bank0
  3090     003F  00DF               	movwf	run_program@key
  3091     0040                     l4069:
  3092                           
  3093                           ;../Washing_machine_simulator-using-PIC16F877A-main/main.c: 423: void run_program(unsign
      +                          ed char key);../Washing_machine_simulator-using-PIC16F877A-main/main.c: 424: {;../Washin
      +                          g_machine_simulator-using-PIC16F877A-main/main.c: 425:     door_status_check();
  3094     0040  160A  118A  26F2  120A  118A  	fcall	_door_status_check
  3095     0045                     l4071:
  3096                           
  3097                           ;../Washing_machine_simulator-using-PIC16F877A-main/main.c: 426:     static int total_ti
      +                          me, time;;../Washing_machine_simulator-using-PIC16F877A-main/main.c: 427:         if(res
      +                          et_mode == 0x12)
  3098     0045  3012               	movlw	18
  3099     0046  1683               	bsf	3,5	;RP0=1, select bank1
  3100     0047  1303               	bcf	3,6	;RP1=0, select bank1
  3101     0048  0649               	xorwf	_reset_mode^(0+128),w
  3102     0049  1D03               	btfss	3,2
  3103     004A  284C               	goto	u5591
  3104     004B  284D               	goto	u5590
  3105     004C                     u5591:
  3106     004C  29E7               	goto	l4113
  3107     004D                     u5590:
  3108     004D                     l4073:
  3109                           
  3110                           ;../Washing_machine_simulator-using-PIC16F877A-main/main.c: 428:         {;../Washing_ma
      +                          chine_simulator-using-PIC16F877A-main/main.c: 429:             clear_screen();
  3111     004D  160A  118A  251E  120A  118A  	fcall	_clear_screen
  3112     0052                     l4075:
  3113                           
  3114                           ;../Washing_machine_simulator-using-PIC16F877A-main/main.c: 430:             clcd_print(
      +                          "Prog: ",(0x80 + 0));
  3115     0052  304D               	movlw	low (STR_33| (0+32768))
  3116     0053  00F6               	movwf	clcd_print@str
  3117     0054  3091               	movlw	high (STR_33| (0+32768))
  3118     0055  00F7               	movwf	clcd_print@str+1
  3119     0056  3080               	movlw	128
  3120     0057  00F8               	movwf	clcd_print@addr
  3121     0058  160A  118A  25F2  120A  118A  	fcall	_clcd_print
  3122     005D                     l4077:
  3123                           
  3124                           ;../Washing_machine_simulator-using-PIC16F877A-main/main.c: 431:             clcd_print(
      +                          washing_prog[program_no],(0x80 + 6));
  3125     005D  087A               	movf	_program_no,w
  3126     005E  1283               	bcf	3,5	;RP0=0, select bank0
  3127     005F  1303               	bcf	3,6	;RP1=0, select bank0
  3128     0060  00D8               	movwf	??_run_program
  3129     0061  0758               	addwf	??_run_program,w
  3130     0062  3EA0               	addlw	(low (_washing_prog| 0))& (0+255)
  3131     0063  0084               	movwf	4
  3132     0064  1383               	bcf	3,7	;select IRP bank1
  3133     0065  0800               	movf	0,w
  3134     0066  00F6               	movwf	clcd_print@str
  3135     0067  0A84               	incf	4,f
  3136     0068  0800               	movf	0,w
  3137     0069  0384               	decf	4,f
  3138     006A  00F7               	movwf	clcd_print@str+1
  3139     006B  3086               	movlw	134
  3140     006C  00F8               	movwf	clcd_print@addr
  3141     006D  160A  118A  25F2  120A  118A  	fcall	_clcd_print
  3142     0072                     l4079:
  3143                           
  3144                           ;../Washing_machine_simulator-using-PIC16F877A-main/main.c: 432:             clcd_print(
      +                          "Time:",(0xC0 + 0));
  3145     0072  3068               	movlw	low (STR_34| (0+32768))
  3146     0073  00F6               	movwf	clcd_print@str
  3147     0074  3091               	movlw	high (STR_34| (0+32768))
  3148     0075  00F7               	movwf	clcd_print@str+1
  3149     0076  30C0               	movlw	192
  3150     0077  00F8               	movwf	clcd_print@addr
  3151     0078  160A  118A  25F2  120A  118A  	fcall	_clcd_print
  3152     007D                     l4081:
  3153                           
  3154                           ;../Washing_machine_simulator-using-PIC16F877A-main/main.c: 435:             clcd_putch(
      +                          (min/10)+'0',(0xC0 + 6));
  3155     007D  30C6               	movlw	198
  3156     007E  00F8               	movwf	clcd_putch@addr
  3157     007F  300A               	movlw	10
  3158     0080  00F2               	movwf	___awdiv@divisor
  3159     0081  3000               	movlw	0
  3160     0082  00F3               	movwf	___awdiv@divisor+1
  3161     0083  1283               	bcf	3,5	;RP0=0, select bank0
  3162     0084  1303               	bcf	3,6	;RP1=0, select bank0
  3163     0085  086A               	movf	_min,w
  3164     0086  00D8               	movwf	??_run_program
  3165     0087  01D9               	clrf	??_run_program+1
  3166     0088  0858               	movf	??_run_program,w
  3167     0089  00F4               	movwf	___awdiv@dividend
  3168     008A  0859               	movf	??_run_program+1,w
  3169     008B  00F5               	movwf	___awdiv@dividend+1
  3170     008C  120A  158A  2018  120A  118A  	fcall	___awdiv
  3171     0091  0872               	movf	?___awdiv,w
  3172     0092  3E30               	addlw	48
  3173     0093  120A  158A  2003  120A  118A  	fcall	_clcd_putch
  3174     0098                     l4083:
  3175                           
  3176                           ;../Washing_machine_simulator-using-PIC16F877A-main/main.c: 436:             clcd_putch(
      +                          (min%10)+'0',(0xC0 + 7));
  3177     0098  30C7               	movlw	199
  3178     0099  00F8               	movwf	clcd_putch@addr
  3179     009A  300A               	movlw	10
  3180     009B  00F2               	movwf	___awmod@divisor
  3181     009C  3000               	movlw	0
  3182     009D  00F3               	movwf	___awmod@divisor+1
  3183     009E  1283               	bcf	3,5	;RP0=0, select bank0
  3184     009F  1303               	bcf	3,6	;RP1=0, select bank0
  3185     00A0  086A               	movf	_min,w
  3186     00A1  00D8               	movwf	??_run_program
  3187     00A2  01D9               	clrf	??_run_program+1
  3188     00A3  0858               	movf	??_run_program,w
  3189     00A4  00F4               	movwf	___awmod@dividend
  3190     00A5  0859               	movf	??_run_program+1,w
  3191     00A6  00F5               	movwf	___awmod@dividend+1
  3192     00A7  160A  118A  2748  120A  118A  	fcall	___awmod
  3193     00AC  0872               	movf	?___awmod,w
  3194     00AD  3E30               	addlw	48
  3195     00AE  120A  158A  2003  120A  118A  	fcall	_clcd_putch
  3196     00B3                     l4085:
  3197                           
  3198                           ;../Washing_machine_simulator-using-PIC16F877A-main/main.c: 437:             clcd_putch(
      +                          ':',(0xC0 + 8));
  3199     00B3  30C8               	movlw	200
  3200     00B4  00F8               	movwf	clcd_putch@addr
  3201     00B5  303A               	movlw	58
  3202     00B6  120A  158A  2003  120A  118A  	fcall	_clcd_putch
  3203     00BB                     l4087:
  3204                           
  3205                           ;../Washing_machine_simulator-using-PIC16F877A-main/main.c: 438:             clcd_putch(
      +                          (sec/10)+'0',(0xC0 + 9));
  3206     00BB  30C9               	movlw	201
  3207     00BC  00F8               	movwf	clcd_putch@addr
  3208     00BD  300A               	movlw	10
  3209     00BE  00F2               	movwf	___awdiv@divisor
  3210     00BF  3000               	movlw	0
  3211     00C0  00F3               	movwf	___awdiv@divisor+1
  3212     00C1  087B               	movf	_sec,w
  3213     00C2  1283               	bcf	3,5	;RP0=0, select bank0
  3214     00C3  1303               	bcf	3,6	;RP1=0, select bank0
  3215     00C4  00D8               	movwf	??_run_program
  3216     00C5  01D9               	clrf	??_run_program+1
  3217     00C6  0858               	movf	??_run_program,w
  3218     00C7  00F4               	movwf	___awdiv@dividend
  3219     00C8  0859               	movf	??_run_program+1,w
  3220     00C9  00F5               	movwf	___awdiv@dividend+1
  3221     00CA  120A  158A  2018  120A  118A  	fcall	___awdiv
  3222     00CF  0872               	movf	?___awdiv,w
  3223     00D0  3E30               	addlw	48
  3224     00D1  120A  158A  2003  120A  118A  	fcall	_clcd_putch
  3225     00D6                     l4089:
  3226                           
  3227                           ;../Washing_machine_simulator-using-PIC16F877A-main/main.c: 439:             clcd_putch(
      +                          (sec%10)+'0',(0xC0 + 10));
  3228     00D6  30CA               	movlw	202
  3229     00D7  00F8               	movwf	clcd_putch@addr
  3230     00D8  300A               	movlw	10
  3231     00D9  00F2               	movwf	___awmod@divisor
  3232     00DA  3000               	movlw	0
  3233     00DB  00F3               	movwf	___awmod@divisor+1
  3234     00DC  087B               	movf	_sec,w
  3235     00DD  1283               	bcf	3,5	;RP0=0, select bank0
  3236     00DE  1303               	bcf	3,6	;RP1=0, select bank0
  3237     00DF  00D8               	movwf	??_run_program
  3238     00E0  01D9               	clrf	??_run_program+1
  3239     00E1  0858               	movf	??_run_program,w
  3240     00E2  00F4               	movwf	___awmod@dividend
  3241     00E3  0859               	movf	??_run_program+1,w
  3242     00E4  00F5               	movwf	___awmod@dividend+1
  3243     00E5  160A  118A  2748  120A  118A  	fcall	___awmod
  3244     00EA  0872               	movf	?___awmod,w
  3245     00EB  3E30               	addlw	48
  3246     00EC  120A  158A  2003  120A  118A  	fcall	_clcd_putch
  3247                           
  3248                           ;../Washing_machine_simulator-using-PIC16F877A-main/main.c: 440:             clcd_print(
      +                          "(MM:SS)",(0x90 + 5));
  3249     00F1  3045               	movlw	low (STR_35| (0+32768))
  3250     00F2  00F6               	movwf	clcd_print@str
  3251     00F3  3091               	movlw	high (STR_35| (0+32768))
  3252     00F4  00F7               	movwf	clcd_print@str+1
  3253     00F5  3095               	movlw	149
  3254     00F6  00F8               	movwf	clcd_print@addr
  3255     00F7  160A  118A  25F2  120A  118A  	fcall	_clcd_print
  3256     00FC                     l4091:
  3257                           
  3258                           ;../Washing_machine_simulator-using-PIC16F877A-main/main.c: 441:             _delay((uns
      +                          igned long)((2000)*(20000000/4000.0)));
  3259     00FC  3033               	movlw	51
  3260     00FD  1283               	bcf	3,5	;RP0=0, select bank0
  3261     00FE  1303               	bcf	3,6	;RP1=0, select bank0
  3262     00FF  00DA               	movwf	??_run_program+2
  3263     0100  30BB               	movlw	187
  3264     0101  00D9               	movwf	??_run_program+1
  3265     0102  30DF               	movlw	223
  3266     0103  00D8               	movwf	??_run_program
  3267     0104                     u5807:
  3268     0104  0BD8               	decfsz	??_run_program,f
  3269     0105  2904               	goto	u5807
  3270     0106  0BD9               	decfsz	??_run_program+1,f
  3271     0107  2904               	goto	u5807
  3272     0108  0BDA               	decfsz	??_run_program+2,f
  3273     0109  2904               	goto	u5807
  3274     010A                     l4093:
  3275                           
  3276                           ;../Washing_machine_simulator-using-PIC16F877A-main/main.c: 444:             clear_scree
      +                          n();
  3277     010A  160A  118A  251E  120A  118A  	fcall	_clear_screen
  3278     010F                     l4095:
  3279                           
  3280                           ;../Washing_machine_simulator-using-PIC16F877A-main/main.c: 445:             clcd_print(
      +                          "Function -",(0x80 + 0));
  3281     010F  30DF               	movlw	low (STR_30| (0+32768))
  3282     0110  00F6               	movwf	clcd_print@str
  3283     0111  3090               	movlw	high (STR_30| (0+32768))
  3284     0112  00F7               	movwf	clcd_print@str+1
  3285     0113  3080               	movlw	128
  3286     0114  00F8               	movwf	clcd_print@addr
  3287     0115  160A  118A  25F2  120A  118A  	fcall	_clcd_print
  3288     011A                     l4097:
  3289                           
  3290                           ;../Washing_machine_simulator-using-PIC16F877A-main/main.c: 446:             clcd_print(
      +                          "TIME",(0xC0 + 0));
  3291     011A  3080               	movlw	low (STR_31| (0+32768))
  3292     011B  00F6               	movwf	clcd_print@str
  3293     011C  3091               	movlw	high (STR_31| (0+32768))
  3294     011D  00F7               	movwf	clcd_print@str+1
  3295     011E  30C0               	movlw	192
  3296     011F  00F8               	movwf	clcd_print@addr
  3297     0120  160A  118A  25F2  120A  118A  	fcall	_clcd_print
  3298     0125                     l4099:
  3299                           
  3300                           ;../Washing_machine_simulator-using-PIC16F877A-main/main.c: 447:             clcd_print(
      +                          "5-START  6-PAUSE", (0xD0 + 0));
  3301     0125  3044               	movlw	low (STR_32| (0+32768))
  3302     0126  00F6               	movwf	clcd_print@str
  3303     0127  3090               	movlw	high (STR_32| (0+32768))
  3304     0128  00F7               	movwf	clcd_print@str+1
  3305     0129  30D0               	movlw	208
  3306     012A  00F8               	movwf	clcd_print@addr
  3307     012B  160A  118A  25F2  120A  118A  	fcall	_clcd_print
  3308     0130                     l4101:
  3309                           
  3310                           ;../Washing_machine_simulator-using-PIC16F877A-main/main.c: 450:             time = tota
      +                          l_time = (min*60+sec);
  3311     0130  1283               	bcf	3,5	;RP0=0, select bank0
  3312     0131  1303               	bcf	3,6	;RP1=0, select bank0
  3313     0132  086A               	movf	_min,w
  3314     0133  00D8               	movwf	??_run_program
  3315     0134  01D9               	clrf	??_run_program+1
  3316     0135  0858               	movf	??_run_program,w
  3317     0136  00F2               	movwf	___wmul@multiplier
  3318     0137  0859               	movf	??_run_program+1,w
  3319     0138  00F3               	movwf	___wmul@multiplier+1
  3320     0139  303C               	movlw	60
  3321     013A  00F4               	movwf	___wmul@multiplicand
  3322     013B  3000               	movlw	0
  3323     013C  00F5               	movwf	___wmul@multiplicand+1
  3324     013D  160A  118A  25A4  120A  118A  	fcall	___wmul
  3325     0142  087B               	movf	_sec,w
  3326     0143  0772               	addwf	?___wmul,w
  3327     0144  1283               	bcf	3,5	;RP0=0, select bank0
  3328     0145  1303               	bcf	3,6	;RP1=0, select bank0
  3329     0146  00E2               	movwf	run_program@total_time
  3330     0147  3000               	movlw	0
  3331     0148  1803               	skipnc
  3332     0149  3001               	movlw	1
  3333     014A  0773               	addwf	?___wmul+1,w
  3334     014B  00E3               	movwf	run_program@total_time+1
  3335     014C  0863               	movf	run_program@total_time+1,w
  3336     014D  00E1               	movwf	run_program@time+1
  3337     014E  0862               	movf	run_program@total_time,w
  3338     014F  00E0               	movwf	run_program@time
  3339     0150                     l4103:
  3340                           
  3341                           ;../Washing_machine_simulator-using-PIC16F877A-main/main.c: 451:             wash_time =
      +                           (int) total_time *0.46;
  3342     0150  0862               	movf	run_program@total_time,w
  3343     0151  00F2               	movwf	___xxtofl@val
  3344     0152  0863               	movf	run_program@total_time+1,w
  3345     0153  00F3               	movwf	___xxtofl@val+1
  3346     0154  3000               	movlw	0
  3347     0155  1BF3               	btfsc	___xxtofl@val+1,7
  3348     0156  30FF               	movlw	255
  3349     0157  00F4               	movwf	___xxtofl@val+2
  3350     0158  00F5               	movwf	___xxtofl@val+3
  3351     0159  3001               	movlw	1
  3352     015A  120A  118A  2728  120A  118A  	fcall	___xxtofl
  3353     015F  0875               	movf	?___xxtofl+3,w
  3354     0160  1283               	bcf	3,5	;RP0=0, select bank0
  3355     0161  1303               	bcf	3,6	;RP1=0, select bank0
  3356     0162  00B1               	movwf	___flmul@a+3
  3357     0163  0874               	movf	?___xxtofl+2,w
  3358     0164  00B0               	movwf	___flmul@a+2
  3359     0165  0873               	movf	?___xxtofl+1,w
  3360     0166  00AF               	movwf	___flmul@a+1
  3361     0167  0872               	movf	?___xxtofl,w
  3362     0168  00AE               	movwf	___flmul@a
  3363     0169  303E               	movlw	62
  3364     016A  00AD               	movwf	___flmul@b+3
  3365     016B  30EB               	movlw	235
  3366     016C  00AC               	movwf	___flmul@b+2
  3367     016D  3085               	movlw	133
  3368     016E  00AB               	movwf	___flmul@b+1
  3369     016F  301F               	movlw	31
  3370     0170  00AA               	movwf	___flmul@b
  3371     0171  120A  118A  23E3  120A  118A  	fcall	___flmul
  3372     0176  1283               	bcf	3,5	;RP0=0, select bank0
  3373     0177  1303               	bcf	3,6	;RP1=0, select bank0
  3374     0178  082D               	movf	?___flmul+3,w
  3375     0179  00C7               	movwf	___fltol@f1+3
  3376     017A  082C               	movf	?___flmul+2,w
  3377     017B  00C6               	movwf	___fltol@f1+2
  3378     017C  082B               	movf	?___flmul+1,w
  3379     017D  00C5               	movwf	___fltol@f1+1
  3380     017E  082A               	movf	?___flmul,w
  3381     017F  00C4               	movwf	___fltol@f1
  3382     0180  120A  158A  2081  120A  118A  	fcall	___fltol
  3383     0185  1283               	bcf	3,5	;RP0=0, select bank0
  3384     0186  1303               	bcf	3,6	;RP1=0, select bank0
  3385     0187  0845               	movf	?___fltol+1,w
  3386     0188  00E7               	movwf	_wash_time+1
  3387     0189  0844               	movf	?___fltol,w
  3388     018A  00E6               	movwf	_wash_time
  3389     018B                     l4105:
  3390                           
  3391                           ;../Washing_machine_simulator-using-PIC16F877A-main/main.c: 452:             rinse_time 
      +                          =(int) total_time *0.12;
  3392     018B  0862               	movf	run_program@total_time,w
  3393     018C  00F2               	movwf	___xxtofl@val
  3394     018D  0863               	movf	run_program@total_time+1,w
  3395     018E  00F3               	movwf	___xxtofl@val+1
  3396     018F  3000               	movlw	0
  3397     0190  1BF3               	btfsc	___xxtofl@val+1,7
  3398     0191  30FF               	movlw	255
  3399     0192  00F4               	movwf	___xxtofl@val+2
  3400     0193  00F5               	movwf	___xxtofl@val+3
  3401     0194  3001               	movlw	1
  3402     0195  120A  118A  2728  120A  118A  	fcall	___xxtofl
  3403     019A  0875               	movf	?___xxtofl+3,w
  3404     019B  1283               	bcf	3,5	;RP0=0, select bank0
  3405     019C  1303               	bcf	3,6	;RP1=0, select bank0
  3406     019D  00B1               	movwf	___flmul@a+3
  3407     019E  0874               	movf	?___xxtofl+2,w
  3408     019F  00B0               	movwf	___flmul@a+2
  3409     01A0  0873               	movf	?___xxtofl+1,w
  3410     01A1  00AF               	movwf	___flmul@a+1
  3411     01A2  0872               	movf	?___xxtofl,w
  3412     01A3  00AE               	movwf	___flmul@a
  3413     01A4  303D               	movlw	61
  3414     01A5  00AD               	movwf	___flmul@b+3
  3415     01A6  30F5               	movlw	245
  3416     01A7  00AC               	movwf	___flmul@b+2
  3417     01A8  30C2               	movlw	194
  3418     01A9  00AB               	movwf	___flmul@b+1
  3419     01AA  308F               	movlw	143
  3420     01AB  00AA               	movwf	___flmul@b
  3421     01AC  120A  118A  23E3  120A  118A  	fcall	___flmul
  3422     01B1  1283               	bcf	3,5	;RP0=0, select bank0
  3423     01B2  1303               	bcf	3,6	;RP1=0, select bank0
  3424     01B3  082D               	movf	?___flmul+3,w
  3425     01B4  00C7               	movwf	___fltol@f1+3
  3426     01B5  082C               	movf	?___flmul+2,w
  3427     01B6  00C6               	movwf	___fltol@f1+2
  3428     01B7  082B               	movf	?___flmul+1,w
  3429     01B8  00C5               	movwf	___fltol@f1+1
  3430     01B9  082A               	movf	?___flmul,w
  3431     01BA  00C4               	movwf	___fltol@f1
  3432     01BB  120A  158A  2081  120A  118A  	fcall	___fltol
  3433     01C0  1283               	bcf	3,5	;RP0=0, select bank0
  3434     01C1  1303               	bcf	3,6	;RP1=0, select bank0
  3435     01C2  0845               	movf	?___fltol+1,w
  3436     01C3  00E5               	movwf	_rinse_time+1
  3437     01C4  0844               	movf	?___fltol,w
  3438     01C5  00E4               	movwf	_rinse_time
  3439     01C6                     l4107:
  3440                           
  3441                           ;../Washing_machine_simulator-using-PIC16F877A-main/main.c: 453:             spin_time =
      +                           total_time - wash_time - rinse_time;
  3442     01C6  0966               	comf	_wash_time,w
  3443     01C7  00D8               	movwf	??_run_program
  3444     01C8  0967               	comf	_wash_time+1,w
  3445     01C9  00D9               	movwf	??_run_program+1
  3446     01CA  0AD8               	incf	??_run_program,f
  3447     01CB  1903               	skipnz
  3448     01CC  0AD9               	incf	??_run_program+1,f
  3449     01CD  0864               	movf	_rinse_time,w
  3450     01CE  0258               	subwf	??_run_program,w
  3451     01CF  00DA               	movwf	??_run_program+2
  3452     01D0  0865               	movf	_rinse_time+1,w
  3453     01D1  1C03               	skipc
  3454     01D2  0A65               	incf	_rinse_time+1,w
  3455     01D3  0259               	subwf	??_run_program+1,w
  3456     01D4  00DB               	movwf	??_run_program+3
  3457     01D5  0862               	movf	run_program@total_time,w
  3458     01D6  075A               	addwf	??_run_program+2,w
  3459     01D7  1683               	bsf	3,5	;RP0=1, select bank1
  3460     01D8  1303               	bcf	3,6	;RP1=0, select bank1
  3461     01D9  00C7               	movwf	_spin_time^(0+128)
  3462     01DA  1283               	bcf	3,5	;RP0=0, select bank0
  3463     01DB  1303               	bcf	3,6	;RP1=0, select bank0
  3464     01DC  0863               	movf	run_program@total_time+1,w
  3465     01DD  1803               	skipnc
  3466     01DE  0A63               	incf	run_program@total_time+1,w
  3467     01DF  075B               	addwf	??_run_program+3,w
  3468     01E0  1683               	bsf	3,5	;RP0=1, select bank1
  3469     01E1  1303               	bcf	3,6	;RP1=0, select bank1
  3470     01E2  00C8               	movwf	(_spin_time+1)^(0+128)
  3471     01E3                     l4109:
  3472                           
  3473                           ;../Washing_machine_simulator-using-PIC16F877A-main/main.c: 456:             TMR2ON = 1;
  3474     01E3  1283               	bcf	3,5	;RP0=0, select bank0
  3475     01E4  1303               	bcf	3,6	;RP1=0, select bank0
  3476     01E5  1512               	bsf	18,2	;volatile
  3477     01E6                     l4111:
  3478                           
  3479                           ;../Washing_machine_simulator-using-PIC16F877A-main/main.c: 458:             RC2 = 1;
  3480     01E6  1507               	bsf	7,2	;volatile
  3481     01E7                     l4113:
  3482                           
  3483                           ;../Washing_machine_simulator-using-PIC16F877A-main/main.c: 466:     if(key == 0x1F)
  3484     01E7  301F               	movlw	31
  3485     01E8  1283               	bcf	3,5	;RP0=0, select bank0
  3486     01E9  065F               	xorwf	run_program@key,w
  3487     01EA  1D03               	btfss	3,2
  3488     01EB  29ED               	goto	u5601
  3489     01EC  29EE               	goto	u5600
  3490     01ED                     u5601:
  3491     01ED  29F2               	goto	l4119
  3492     01EE                     u5600:
  3493     01EE                     l4115:
  3494                           
  3495                           ;../Washing_machine_simulator-using-PIC16F877A-main/main.c: 467:     {;../Washing_machin
      +                          e_simulator-using-PIC16F877A-main/main.c: 468:         TMR2ON = 0;
  3496     01EE  1112               	bcf	18,2	;volatile
  3497                           
  3498                           ;../Washing_machine_simulator-using-PIC16F877A-main/main.c: 469:         RC2 = 0;
  3499     01EF  1107               	bcf	7,2	;volatile
  3500     01F0                     l4117:
  3501                           
  3502                           ;../Washing_machine_simulator-using-PIC16F877A-main/main.c: 470:         operation_mode 
      +                          = 0x05;
  3503     01F0  3005               	movlw	5
  3504     01F1  00ED               	movwf	_operation_mode
  3505     01F2                     l4119:
  3506                           
  3507                           ;../Washing_machine_simulator-using-PIC16F877A-main/main.c: 473:     total_time = (min*6
      +                          0+sec);
  3508     01F2  086A               	movf	_min,w
  3509     01F3  00D8               	movwf	??_run_program
  3510     01F4  01D9               	clrf	??_run_program+1
  3511     01F5  0858               	movf	??_run_program,w
  3512     01F6  00F2               	movwf	___wmul@multiplier
  3513     01F7  0859               	movf	??_run_program+1,w
  3514     01F8  00F3               	movwf	___wmul@multiplier+1
  3515     01F9  303C               	movlw	60
  3516     01FA  00F4               	movwf	___wmul@multiplicand
  3517     01FB  3000               	movlw	0
  3518     01FC  00F5               	movwf	___wmul@multiplicand+1
  3519     01FD  160A  118A  25A4  120A  118A  	fcall	___wmul
  3520     0202  087B               	movf	_sec,w
  3521     0203  0772               	addwf	?___wmul,w
  3522     0204  1283               	bcf	3,5	;RP0=0, select bank0
  3523     0205  1303               	bcf	3,6	;RP1=0, select bank0
  3524     0206  00E2               	movwf	run_program@total_time
  3525     0207  3000               	movlw	0
  3526     0208  1803               	skipnc
  3527     0209  3001               	movlw	1
  3528     020A  0773               	addwf	?___wmul+1,w
  3529     020B  00E3               	movwf	run_program@total_time+1
  3530     020C                     l4121:
  3531                           
  3532                           ;../Washing_machine_simulator-using-PIC16F877A-main/main.c: 474:     if(program_no <= 7)
  3533     020C  3008               	movlw	8
  3534     020D  027A               	subwf	_program_no,w
  3535     020E  1803               	skipnc
  3536     020F  2A11               	goto	u5611
  3537     0210  2A12               	goto	u5610
  3538     0211                     u5611:
  3539     0211  2A73               	goto	l4133
  3540     0212                     u5610:
  3541     0212                     l4123:
  3542                           
  3543                           ;../Washing_machine_simulator-using-PIC16F877A-main/main.c: 475:     {;../Washing_machin
      +                          e_simulator-using-PIC16F877A-main/main.c: 476:     if(total_time >= (time - wash_time))
  3544     0212  0866               	movf	_wash_time,w
  3545     0213  0260               	subwf	run_program@time,w
  3546     0214  00D8               	movwf	??_run_program
  3547     0215  0867               	movf	_wash_time+1,w
  3548     0216  1C03               	skipc
  3549     0217  0A67               	incf	_wash_time+1,w
  3550     0218  0261               	subwf	run_program@time+1,w
  3551     0219  00D9               	movwf	??_run_program+1
  3552     021A  0863               	movf	run_program@total_time+1,w
  3553     021B  3A80               	xorlw	128
  3554     021C  00DA               	movwf	??_run_program+2
  3555     021D  0859               	movf	??_run_program+1,w
  3556     021E  3A80               	xorlw	128
  3557     021F  025A               	subwf	??_run_program+2,w
  3558     0220  1D03               	skipz
  3559     0221  2A24               	goto	u5625
  3560     0222  0858               	movf	??_run_program,w
  3561     0223  0262               	subwf	run_program@total_time,w
  3562     0224                     u5625:
  3563     0224  1C03               	skipc
  3564     0225  2A27               	goto	u5621
  3565     0226  2A28               	goto	u5620
  3566     0227                     u5621:
  3567     0227  2A34               	goto	l4127
  3568     0228                     u5620:
  3569     0228                     l4125:
  3570                           
  3571                           ;../Washing_machine_simulator-using-PIC16F877A-main/main.c: 477:     {;../Washing_machin
      +                          e_simulator-using-PIC16F877A-main/main.c: 478:         clcd_print("Wash",(0x80 + 11));
  3572     0228  308A               	movlw	low (STR_39| (0+32768))
  3573     0229  00F6               	movwf	clcd_print@str
  3574     022A  3091               	movlw	high (STR_39| (0+32768))
  3575     022B  00F7               	movwf	clcd_print@str+1
  3576     022C  308B               	movlw	139
  3577     022D  00F8               	movwf	clcd_print@addr
  3578     022E  160A  118A  25F2  120A  118A  	fcall	_clcd_print
  3579                           
  3580                           ;../Washing_machine_simulator-using-PIC16F877A-main/main.c: 479:     }
  3581     0233  2B28               	goto	l4147
  3582     0234                     l4127:
  3583     0234  1283               	bcf	3,5	;RP0=0, select bank0
  3584     0235  1303               	bcf	3,6	;RP1=0, select bank0
  3585     0236  0966               	comf	_wash_time,w
  3586     0237  00D8               	movwf	??_run_program
  3587     0238  0967               	comf	_wash_time+1,w
  3588     0239  00D9               	movwf	??_run_program+1
  3589     023A  0AD8               	incf	??_run_program,f
  3590     023B  1903               	skipnz
  3591     023C  0AD9               	incf	??_run_program+1,f
  3592     023D  0864               	movf	_rinse_time,w
  3593     023E  0258               	subwf	??_run_program,w
  3594     023F  00DA               	movwf	??_run_program+2
  3595     0240  0865               	movf	_rinse_time+1,w
  3596     0241  1C03               	skipc
  3597     0242  0A65               	incf	_rinse_time+1,w
  3598     0243  0259               	subwf	??_run_program+1,w
  3599     0244  00DB               	movwf	??_run_program+3
  3600     0245  0860               	movf	run_program@time,w
  3601     0246  075A               	addwf	??_run_program+2,w
  3602     0247  00DC               	movwf	??_run_program+4
  3603     0248  0861               	movf	run_program@time+1,w
  3604     0249  1803               	skipnc
  3605     024A  0A61               	incf	run_program@time+1,w
  3606     024B  075B               	addwf	??_run_program+3,w
  3607     024C  00DD               	movwf	??_run_program+5
  3608     024D  0863               	movf	run_program@total_time+1,w
  3609     024E  3A80               	xorlw	128
  3610     024F  00DE               	movwf	??_run_program+6
  3611     0250  085D               	movf	??_run_program+5,w
  3612     0251  3A80               	xorlw	128
  3613     0252  025E               	subwf	??_run_program+6,w
  3614     0253  1D03               	skipz
  3615     0254  2A57               	goto	u5635
  3616     0255  085C               	movf	??_run_program+4,w
  3617     0256  0262               	subwf	run_program@total_time,w
  3618     0257                     u5635:
  3619     0257  1C03               	skipc
  3620     0258  2A5A               	goto	u5631
  3621     0259  2A5B               	goto	u5630
  3622     025A                     u5631:
  3623     025A  2A67               	goto	l4131
  3624     025B                     u5630:
  3625     025B                     l4129:
  3626                           
  3627                           ;../Washing_machine_simulator-using-PIC16F877A-main/main.c: 481:        {;../Washing_mac
      +                          hine_simulator-using-PIC16F877A-main/main.c: 482:            clcd_print("Rinse",(0x80 + 
      +                          11));
  3628     025B  306E               	movlw	low (STR_40| (0+32768))
  3629     025C  00F6               	movwf	clcd_print@str
  3630     025D  3091               	movlw	high (STR_40| (0+32768))
  3631     025E  00F7               	movwf	clcd_print@str+1
  3632     025F  308B               	movlw	139
  3633     0260  00F8               	movwf	clcd_print@addr
  3634     0261  160A  118A  25F2  120A  118A  	fcall	_clcd_print
  3635                           
  3636                           ;../Washing_machine_simulator-using-PIC16F877A-main/main.c: 483:        }
  3637     0266  2B28               	goto	l4147
  3638     0267                     l4131:
  3639                           
  3640                           ;../Washing_machine_simulator-using-PIC16F877A-main/main.c: 485:            clcd_print("
      +                          Spin ",(0x80 + 11));
  3641     0267  3062               	movlw	low (STR_41| (0+32768))
  3642     0268  00F6               	movwf	clcd_print@str
  3643     0269  3091               	movlw	high (STR_41| (0+32768))
  3644     026A  00F7               	movwf	clcd_print@str+1
  3645     026B  308B               	movlw	139
  3646     026C  00F8               	movwf	clcd_print@addr
  3647     026D  160A  118A  25F2  120A  118A  	fcall	_clcd_print
  3648     0272  2B28               	goto	l4147
  3649     0273                     l4133:
  3650     0273  3008               	movlw	8
  3651     0274  067A               	xorwf	_program_no,w
  3652     0275  1D03               	btfss	3,2
  3653     0276  2A78               	goto	u5641
  3654     0277  2A79               	goto	u5640
  3655     0278                     u5641:
  3656     0278  2B0B               	goto	l4141
  3657     0279                     u5640:
  3658     0279                     l4135:
  3659                           
  3660                           ;../Washing_machine_simulator-using-PIC16F877A-main/main.c: 488:     {;../Washing_machin
      +                          e_simulator-using-PIC16F877A-main/main.c: 489:         if(total_time >= (time - (0.40 * 
      +                          time)) )
  3661     0279  0862               	movf	run_program@total_time,w
  3662     027A  00F2               	movwf	___xxtofl@val
  3663     027B  0863               	movf	run_program@total_time+1,w
  3664     027C  00F3               	movwf	___xxtofl@val+1
  3665     027D  3000               	movlw	0
  3666     027E  1BF3               	btfsc	___xxtofl@val+1,7
  3667     027F  30FF               	movlw	255
  3668     0280  00F4               	movwf	___xxtofl@val+2
  3669     0281  00F5               	movwf	___xxtofl@val+3
  3670     0282  3001               	movlw	1
  3671     0283  120A  118A  2728  120A  118A  	fcall	___xxtofl
  3672     0288  0875               	movf	?___xxtofl+3,w
  3673     0289  1283               	bcf	3,5	;RP0=0, select bank0
  3674     028A  1303               	bcf	3,6	;RP1=0, select bank0
  3675     028B  00CF               	movwf	___flge@ff1+3
  3676     028C  0874               	movf	?___xxtofl+2,w
  3677     028D  00CE               	movwf	___flge@ff1+2
  3678     028E  0873               	movf	?___xxtofl+1,w
  3679     028F  00CD               	movwf	___flge@ff1+1
  3680     0290  0872               	movf	?___xxtofl,w
  3681     0291  00CC               	movwf	___flge@ff1
  3682     0292  0860               	movf	run_program@time,w
  3683     0293  00F2               	movwf	___xxtofl@val
  3684     0294  0861               	movf	run_program@time+1,w
  3685     0295  00F3               	movwf	___xxtofl@val+1
  3686     0296  3000               	movlw	0
  3687     0297  1BF3               	btfsc	___xxtofl@val+1,7
  3688     0298  30FF               	movlw	255
  3689     0299  00F4               	movwf	___xxtofl@val+2
  3690     029A  00F5               	movwf	___xxtofl@val+3
  3691     029B  3001               	movlw	1
  3692     029C  120A  118A  2728  120A  118A  	fcall	___xxtofl
  3693     02A1  0875               	movf	?___xxtofl+3,w
  3694     02A2  1283               	bcf	3,5	;RP0=0, select bank0
  3695     02A3  1303               	bcf	3,6	;RP1=0, select bank0
  3696     02A4  00CB               	movwf	___flsub@b+3
  3697     02A5  0874               	movf	?___xxtofl+2,w
  3698     02A6  00CA               	movwf	___flsub@b+2
  3699     02A7  0873               	movf	?___xxtofl+1,w
  3700     02A8  00C9               	movwf	___flsub@b+1
  3701     02A9  0872               	movf	?___xxtofl,w
  3702     02AA  00C8               	movwf	___flsub@b
  3703     02AB  0860               	movf	run_program@time,w
  3704     02AC  00F2               	movwf	___xxtofl@val
  3705     02AD  0861               	movf	run_program@time+1,w
  3706     02AE  00F3               	movwf	___xxtofl@val+1
  3707     02AF  3000               	movlw	0
  3708     02B0  1BF3               	btfsc	___xxtofl@val+1,7
  3709     02B1  30FF               	movlw	255
  3710     02B2  00F4               	movwf	___xxtofl@val+2
  3711     02B3  00F5               	movwf	___xxtofl@val+3
  3712     02B4  3001               	movlw	1
  3713     02B5  120A  118A  2728  120A  118A  	fcall	___xxtofl
  3714     02BA  0875               	movf	?___xxtofl+3,w
  3715     02BB  1283               	bcf	3,5	;RP0=0, select bank0
  3716     02BC  1303               	bcf	3,6	;RP1=0, select bank0
  3717     02BD  00B1               	movwf	___flmul@a+3
  3718     02BE  0874               	movf	?___xxtofl+2,w
  3719     02BF  00B0               	movwf	___flmul@a+2
  3720     02C0  0873               	movf	?___xxtofl+1,w
  3721     02C1  00AF               	movwf	___flmul@a+1
  3722     02C2  0872               	movf	?___xxtofl,w
  3723     02C3  00AE               	movwf	___flmul@a
  3724     02C4  303E               	movlw	62
  3725     02C5  00AD               	movwf	___flmul@b+3
  3726     02C6  30CC               	movlw	204
  3727     02C7  00AC               	movwf	___flmul@b+2
  3728     02C8  30CC               	movlw	204
  3729     02C9  00AB               	movwf	___flmul@b+1
  3730     02CA  30CD               	movlw	205
  3731     02CB  00AA               	movwf	___flmul@b
  3732     02CC  120A  118A  23E3  120A  118A  	fcall	___flmul
  3733     02D1  1283               	bcf	3,5	;RP0=0, select bank0
  3734     02D2  1303               	bcf	3,6	;RP1=0, select bank0
  3735     02D3  082D               	movf	?___flmul+3,w
  3736     02D4  00C7               	movwf	___flsub@a+3
  3737     02D5  082C               	movf	?___flmul+2,w
  3738     02D6  00C6               	movwf	___flsub@a+2
  3739     02D7  082B               	movf	?___flmul+1,w
  3740     02D8  00C5               	movwf	___flsub@a+1
  3741     02D9  082A               	movf	?___flmul,w
  3742     02DA  00C4               	movwf	___flsub@a
  3743     02DB  160A  118A  2580  120A  118A  	fcall	___flsub
  3744     02E0  1283               	bcf	3,5	;RP0=0, select bank0
  3745     02E1  1303               	bcf	3,6	;RP1=0, select bank0
  3746     02E2  0847               	movf	?___flsub+3,w
  3747     02E3  00D3               	movwf	___flge@ff2+3
  3748     02E4  0846               	movf	?___flsub+2,w
  3749     02E5  00D2               	movwf	___flge@ff2+2
  3750     02E6  0845               	movf	?___flsub+1,w
  3751     02E7  00D1               	movwf	___flge@ff2+1
  3752     02E8  0844               	movf	?___flsub,w
  3753     02E9  00D0               	movwf	___flge@ff2
  3754     02EA  120A  158A  20F9  120A  118A  	fcall	___flge
  3755     02EF  1C03               	btfss	3,0
  3756     02F0  2AF2               	goto	u5651
  3757     02F1  2AF3               	goto	u5650
  3758     02F2                     u5651:
  3759     02F2  2AFF               	goto	l4139
  3760     02F3                     u5650:
  3761     02F3                     l4137:
  3762                           
  3763                           ;../Washing_machine_simulator-using-PIC16F877A-main/main.c: 490:         {;../Washing_ma
      +                          chine_simulator-using-PIC16F877A-main/main.c: 491:           clcd_print("Rinse",(0x80 + 
      +                          11));
  3764     02F3  306E               	movlw	low (STR_40| (0+32768))
  3765     02F4  00F6               	movwf	clcd_print@str
  3766     02F5  3091               	movlw	high (STR_40| (0+32768))
  3767     02F6  00F7               	movwf	clcd_print@str+1
  3768     02F7  308B               	movlw	139
  3769     02F8  00F8               	movwf	clcd_print@addr
  3770     02F9  160A  118A  25F2  120A  118A  	fcall	_clcd_print
  3771                           
  3772                           ;../Washing_machine_simulator-using-PIC16F877A-main/main.c: 492:         }
  3773     02FE  2B28               	goto	l4147
  3774     02FF                     l4139:
  3775                           
  3776                           ;../Washing_machine_simulator-using-PIC16F877A-main/main.c: 494:            clcd_print("
      +                          Spin ",(0x80 + 11));
  3777     02FF  3062               	movlw	low (STR_41| (0+32768))
  3778     0300  00F6               	movwf	clcd_print@str
  3779     0301  3091               	movlw	high (STR_41| (0+32768))
  3780     0302  00F7               	movwf	clcd_print@str+1
  3781     0303  308B               	movlw	139
  3782     0304  00F8               	movwf	clcd_print@addr
  3783     0305  160A  118A  25F2  120A  118A  	fcall	_clcd_print
  3784     030A  2B28               	goto	l4147
  3785     030B                     l4141:
  3786     030B  3009               	movlw	9
  3787     030C  067A               	xorwf	_program_no,w
  3788     030D  1D03               	btfss	3,2
  3789     030E  2B10               	goto	u5661
  3790     030F  2B11               	goto	u5660
  3791     0310                     u5661:
  3792     0310  2B1D               	goto	l4145
  3793     0311                     u5660:
  3794     0311                     l4143:
  3795                           
  3796                           ;../Washing_machine_simulator-using-PIC16F877A-main/main.c: 497:     {;../Washing_machin
      +                          e_simulator-using-PIC16F877A-main/main.c: 498:         clcd_print("Rinse",(0x80 + 11));
  3797     0311  306E               	movlw	low (STR_40| (0+32768))
  3798     0312  00F6               	movwf	clcd_print@str
  3799     0313  3091               	movlw	high (STR_40| (0+32768))
  3800     0314  00F7               	movwf	clcd_print@str+1
  3801     0315  308B               	movlw	139
  3802     0316  00F8               	movwf	clcd_print@addr
  3803     0317  160A  118A  25F2  120A  118A  	fcall	_clcd_print
  3804                           
  3805                           ;../Washing_machine_simulator-using-PIC16F877A-main/main.c: 499:     }
  3806     031C  2B28               	goto	l4147
  3807     031D                     l4145:
  3808                           
  3809                           ;../Washing_machine_simulator-using-PIC16F877A-main/main.c: 501:     {;../Washing_machin
      +                          e_simulator-using-PIC16F877A-main/main.c: 502:         clcd_print("Wash",(0x80 + 11));
  3810     031D  308A               	movlw	low (STR_39| (0+32768))
  3811     031E  00F6               	movwf	clcd_print@str
  3812     031F  3091               	movlw	high (STR_39| (0+32768))
  3813     0320  00F7               	movwf	clcd_print@str+1
  3814     0321  308B               	movlw	139
  3815     0322  00F8               	movwf	clcd_print@addr
  3816     0323  160A  118A  25F2  120A  118A  	fcall	_clcd_print
  3817     0328                     l4147:
  3818                           
  3819                           ;../Washing_machine_simulator-using-PIC16F877A-main/main.c: 505:             clcd_putch(
      +                          (min/10)+'0',(0xC0 + 6));
  3820     0328  30C6               	movlw	198
  3821     0329  00F8               	movwf	clcd_putch@addr
  3822     032A  300A               	movlw	10
  3823     032B  00F2               	movwf	___awdiv@divisor
  3824     032C  3000               	movlw	0
  3825     032D  00F3               	movwf	___awdiv@divisor+1
  3826     032E  1283               	bcf	3,5	;RP0=0, select bank0
  3827     032F  1303               	bcf	3,6	;RP1=0, select bank0
  3828     0330  086A               	movf	_min,w
  3829     0331  00D8               	movwf	??_run_program
  3830     0332  01D9               	clrf	??_run_program+1
  3831     0333  0858               	movf	??_run_program,w
  3832     0334  00F4               	movwf	___awdiv@dividend
  3833     0335  0859               	movf	??_run_program+1,w
  3834     0336  00F5               	movwf	___awdiv@dividend+1
  3835     0337  120A  158A  2018  120A  118A  	fcall	___awdiv
  3836     033C  0872               	movf	?___awdiv,w
  3837     033D  3E30               	addlw	48
  3838     033E  120A  158A  2003  120A  118A  	fcall	_clcd_putch
  3839     0343                     l4149:
  3840                           
  3841                           ;../Washing_machine_simulator-using-PIC16F877A-main/main.c: 506:             clcd_putch(
      +                          (min%10)+'0',(0xC0 + 7));
  3842     0343  30C7               	movlw	199
  3843     0344  00F8               	movwf	clcd_putch@addr
  3844     0345  300A               	movlw	10
  3845     0346  00F2               	movwf	___awmod@divisor
  3846     0347  3000               	movlw	0
  3847     0348  00F3               	movwf	___awmod@divisor+1
  3848     0349  1283               	bcf	3,5	;RP0=0, select bank0
  3849     034A  1303               	bcf	3,6	;RP1=0, select bank0
  3850     034B  086A               	movf	_min,w
  3851     034C  00D8               	movwf	??_run_program
  3852     034D  01D9               	clrf	??_run_program+1
  3853     034E  0858               	movf	??_run_program,w
  3854     034F  00F4               	movwf	___awmod@dividend
  3855     0350  0859               	movf	??_run_program+1,w
  3856     0351  00F5               	movwf	___awmod@dividend+1
  3857     0352  160A  118A  2748  120A  118A  	fcall	___awmod
  3858     0357  0872               	movf	?___awmod,w
  3859     0358  3E30               	addlw	48
  3860     0359  120A  158A  2003  120A  118A  	fcall	_clcd_putch
  3861     035E                     l4151:
  3862                           
  3863                           ;../Washing_machine_simulator-using-PIC16F877A-main/main.c: 507:             clcd_putch(
      +                          ':',(0xC0 + 8));
  3864     035E  30C8               	movlw	200
  3865     035F  00F8               	movwf	clcd_putch@addr
  3866     0360  303A               	movlw	58
  3867     0361  120A  158A  2003  120A  118A  	fcall	_clcd_putch
  3868     0366                     l4153:
  3869                           
  3870                           ;../Washing_machine_simulator-using-PIC16F877A-main/main.c: 508:             clcd_putch(
      +                          (sec/10)+'0',(0xC0 + 9));
  3871     0366  30C9               	movlw	201
  3872     0367  00F8               	movwf	clcd_putch@addr
  3873     0368  300A               	movlw	10
  3874     0369  00F2               	movwf	___awdiv@divisor
  3875     036A  3000               	movlw	0
  3876     036B  00F3               	movwf	___awdiv@divisor+1
  3877     036C  087B               	movf	_sec,w
  3878     036D  1283               	bcf	3,5	;RP0=0, select bank0
  3879     036E  1303               	bcf	3,6	;RP1=0, select bank0
  3880     036F  00D8               	movwf	??_run_program
  3881     0370  01D9               	clrf	??_run_program+1
  3882     0371  0858               	movf	??_run_program,w
  3883     0372  00F4               	movwf	___awdiv@dividend
  3884     0373  0859               	movf	??_run_program+1,w
  3885     0374  00F5               	movwf	___awdiv@dividend+1
  3886     0375  120A  158A  2018  120A  118A  	fcall	___awdiv
  3887     037A  0872               	movf	?___awdiv,w
  3888     037B  3E30               	addlw	48
  3889     037C  120A  158A  2003  120A  118A  	fcall	_clcd_putch
  3890     0381                     l4155:
  3891                           
  3892                           ;../Washing_machine_simulator-using-PIC16F877A-main/main.c: 509:             clcd_putch(
      +                          (sec%10)+'0',(0xC0 + 10));
  3893     0381  30CA               	movlw	202
  3894     0382  00F8               	movwf	clcd_putch@addr
  3895     0383  300A               	movlw	10
  3896     0384  00F2               	movwf	___awmod@divisor
  3897     0385  3000               	movlw	0
  3898     0386  00F3               	movwf	___awmod@divisor+1
  3899     0387  087B               	movf	_sec,w
  3900     0388  1283               	bcf	3,5	;RP0=0, select bank0
  3901     0389  1303               	bcf	3,6	;RP1=0, select bank0
  3902     038A  00D8               	movwf	??_run_program
  3903     038B  01D9               	clrf	??_run_program+1
  3904     038C  0858               	movf	??_run_program,w
  3905     038D  00F4               	movwf	___awmod@dividend
  3906     038E  0859               	movf	??_run_program+1,w
  3907     038F  00F5               	movwf	___awmod@dividend+1
  3908     0390  160A  118A  2748  120A  118A  	fcall	___awmod
  3909     0395  0872               	movf	?___awmod,w
  3910     0396  3E30               	addlw	48
  3911     0397  120A  158A  2003  120A  118A  	fcall	_clcd_putch
  3912     039C                     l4157:
  3913                           
  3914                           ;../Washing_machine_simulator-using-PIC16F877A-main/main.c: 511:             if(sec == 0
      +                           && min == 0)
  3915     039C  087B               	movf	_sec,w
  3916     039D  1D03               	btfss	3,2
  3917     039E  2BA0               	goto	u5671
  3918     039F  2BA1               	goto	u5670
  3919     03A0                     u5671:
  3920     03A0  2BE2               	goto	l296
  3921     03A1                     u5670:
  3922     03A1                     l4159:
  3923     03A1  1283               	bcf	3,5	;RP0=0, select bank0
  3924     03A2  1303               	bcf	3,6	;RP1=0, select bank0
  3925     03A3  086A               	movf	_min,w
  3926     03A4  1D03               	btfss	3,2
  3927     03A5  2BA7               	goto	u5681
  3928     03A6  2BA8               	goto	u5680
  3929     03A7                     u5681:
  3930     03A7  2BE2               	goto	l296
  3931     03A8                     u5680:
  3932     03A8                     l4161:
  3933                           
  3934                           ;../Washing_machine_simulator-using-PIC16F877A-main/main.c: 512:             {;../Washin
      +                          g_machine_simulator-using-PIC16F877A-main/main.c: 514:                 TMR2ON = 0;
  3935     03A8  1112               	bcf	18,2	;volatile
  3936                           
  3937                           ;../Washing_machine_simulator-using-PIC16F877A-main/main.c: 516:                 RC2 =0;
  3938     03A9  1107               	bcf	7,2	;volatile
  3939                           
  3940                           ;../Washing_machine_simulator-using-PIC16F877A-main/main.c: 518:                 RC1 = 1
      +                          ;
  3941     03AA  1487               	bsf	7,1	;volatile
  3942     03AB                     l4163:
  3943                           
  3944                           ;../Washing_machine_simulator-using-PIC16F877A-main/main.c: 520:                 clear_s
      +                          creen();
  3945     03AB  160A  118A  251E  120A  118A  	fcall	_clear_screen
  3946     03B0                     l4165:
  3947                           
  3948                           ;../Washing_machine_simulator-using-PIC16F877A-main/main.c: 521:                 clcd_pr
      +                          int("Prog. Completed", (0x80 + 0));
  3949     03B0  3066               	movlw	low (STR_46| (0+32768))
  3950     03B1  00F6               	movwf	clcd_print@str
  3951     03B2  3090               	movlw	high (STR_46| (0+32768))
  3952     03B3  00F7               	movwf	clcd_print@str+1
  3953     03B4  3080               	movlw	128
  3954     03B5  00F8               	movwf	clcd_print@addr
  3955     03B6  160A  118A  25F2  120A  118A  	fcall	_clcd_print
  3956     03BB                     l4167:
  3957                           
  3958                           ;../Washing_machine_simulator-using-PIC16F877A-main/main.c: 522:                 clcd_pr
      +                          int("Remove Cloths",(0xC0 + 0));
  3959     03BB  3086               	movlw	low (STR_47| (0+32768))
  3960     03BC  00F6               	movwf	clcd_print@str
  3961     03BD  3090               	movlw	high (STR_47| (0+32768))
  3962     03BE  00F7               	movwf	clcd_print@str+1
  3963     03BF  30C0               	movlw	192
  3964     03C0  00F8               	movwf	clcd_print@addr
  3965     03C1  160A  118A  25F2  120A  118A  	fcall	_clcd_print
  3966     03C6                     l4169:
  3967                           
  3968                           ;../Washing_machine_simulator-using-PIC16F877A-main/main.c: 523:                 _delay(
      +                          (unsigned long)((2000)*(20000000/4000.0)));
  3969     03C6  3033               	movlw	51
  3970     03C7  1283               	bcf	3,5	;RP0=0, select bank0
  3971     03C8  1303               	bcf	3,6	;RP1=0, select bank0
  3972     03C9  00DA               	movwf	??_run_program+2
  3973     03CA  30BB               	movlw	187
  3974     03CB  00D9               	movwf	??_run_program+1
  3975     03CC  30DF               	movlw	223
  3976     03CD  00D8               	movwf	??_run_program
  3977     03CE                     u5817:
  3978     03CE  0BD8               	decfsz	??_run_program,f
  3979     03CF  2BCE               	goto	u5817
  3980     03D0  0BD9               	decfsz	??_run_program+1,f
  3981     03D1  2BCE               	goto	u5817
  3982     03D2  0BDA               	decfsz	??_run_program+2,f
  3983     03D3  2BCE               	goto	u5817
  3984     03D4                     l4171:
  3985                           
  3986                           ;../Washing_machine_simulator-using-PIC16F877A-main/main.c: 524:                 RC1 = 0
      +                          ;
  3987     03D4  1283               	bcf	3,5	;RP0=0, select bank0
  3988     03D5  1303               	bcf	3,6	;RP1=0, select bank0
  3989     03D6  1087               	bcf	7,1	;volatile
  3990     03D7                     l4173:
  3991                           
  3992                           ;../Washing_machine_simulator-using-PIC16F877A-main/main.c: 525:                 operati
      +                          on_mode = 0x01;
  3993     03D7  01ED               	clrf	_operation_mode
  3994     03D8  0AED               	incf	_operation_mode,f
  3995     03D9                     l4175:
  3996                           
  3997                           ;../Washing_machine_simulator-using-PIC16F877A-main/main.c: 526:                 reset_m
      +                          ode = 0x10;
  3998     03D9  3010               	movlw	16
  3999     03DA  1683               	bsf	3,5	;RP0=1, select bank1
  4000     03DB  1303               	bcf	3,6	;RP1=0, select bank1
  4001     03DC  00C9               	movwf	_reset_mode^(0+128)
  4002                           
  4003                           ;../Washing_machine_simulator-using-PIC16F877A-main/main.c: 527:                 clear_s
      +                          creen();
  4004     03DD  160A  118A  251E  120A  118A  	fcall	_clear_screen
  4005     03E2                     l296:
  4006     03E2  0008               	return
  4007     03E3                     __end_of_run_program:
  4008                           
  4009                           	psect	text5
  4010     16F2                     __ptext5:	
  4011 ;; *************** function _door_status_check *****************
  4012 ;; Defined at:
  4013 ;;		line 392 in file "../Washing_machine_simulator-using-PIC16F877A-main/main.c"
  4014 ;; Parameters:    Size  Location     Type
  4015 ;;		None
  4016 ;; Auto vars:     Size  Location     Type
  4017 ;;		None
  4018 ;; Return value:  Size  Location     Type
  4019 ;;                  1    wreg      void 
  4020 ;; Registers used:
  4021 ;;		wreg, fsr0l, fsr0h, status,2, status,0, btemp+1, pclath, cstack
  4022 ;; Tracked objects:
  4023 ;;		On entry : 0/0
  4024 ;;		On exit  : 0/0
  4025 ;;		Unchanged: 0/0
  4026 ;; Data sizes:     COMMON   BANK0   BANK1   BANK3   BANK2
  4027 ;;      Params:         0       0       0       0       0
  4028 ;;      Locals:         0       0       0       0       0
  4029 ;;      Temps:          0       0       0       0       0
  4030 ;;      Totals:         0       0       0       0       0
  4031 ;;Total ram usage:        0 bytes
  4032 ;; Hardware stack levels used: 1
  4033 ;; Hardware stack levels required when called: 3
  4034 ;; This function calls:
  4035 ;;		_clcd_print
  4036 ;;		_clear_screen
  4037 ;; This function is called by:
  4038 ;;		_run_program
  4039 ;; This function uses a non-reentrant model
  4040 ;;
  4041                           
  4042     16F2                     _door_status_check:	
  4043                           ;psect for function _door_status_check
  4044                           
  4045     16F2                     l3899:	
  4046                           ;incstack = 0
  4047                           ; Regs used in _door_status_check: [wreg-fsr0h+status,2+status,0+btemp+1+pclath+cstack]
  4048                           
  4049                           
  4050                           ;../Washing_machine_simulator-using-PIC16F877A-main/main.c: 394:     if(RB0 == 0)
  4051     16F2  1283               	bcf	3,5	;RP0=0, select bank0
  4052     16F3  1303               	bcf	3,6	;RP1=0, select bank0
  4053     16F4  1806               	btfsc	6,0	;volatile
  4054     16F5  2EF7               	goto	u5331
  4055     16F6  2EF8               	goto	u5330
  4056     16F7                     u5331:
  4057     16F7  2F47               	goto	l274
  4058     16F8                     u5330:
  4059     16F8                     l3901:
  4060                           
  4061                           ;../Washing_machine_simulator-using-PIC16F877A-main/main.c: 395:     {;../Washing_machin
      +                          e_simulator-using-PIC16F877A-main/main.c: 397:         RC1 = 1;
  4062     16F8  1487               	bsf	7,1	;volatile
  4063                           
  4064                           ;../Washing_machine_simulator-using-PIC16F877A-main/main.c: 398:         RC2 = 0;
  4065     16F9  1107               	bcf	7,2	;volatile
  4066                           
  4067                           ;../Washing_machine_simulator-using-PIC16F877A-main/main.c: 399:         TMR2ON = 0;
  4068     16FA  1112               	bcf	18,2	;volatile
  4069     16FB                     l3903:
  4070                           
  4071                           ;../Washing_machine_simulator-using-PIC16F877A-main/main.c: 401:         clear_screen();
  4072     16FB  160A  118A  251E  160A  118A  	fcall	_clear_screen
  4073     1700                     l3905:
  4074                           
  4075                           ;../Washing_machine_simulator-using-PIC16F877A-main/main.c: 402:         clcd_print("DOO
      +                          R : OPEN", (0x80 + 0));
  4076     1700  30C7               	movlw	low (STR_28| (0+32768))
  4077     1701  00F6               	movwf	clcd_print@str
  4078     1702  3090               	movlw	high (STR_28| (0+32768))
  4079     1703  00F7               	movwf	clcd_print@str+1
  4080     1704  3080               	movlw	128
  4081     1705  00F8               	movwf	clcd_print@addr
  4082     1706  160A  118A  25F2  160A  118A  	fcall	_clcd_print
  4083     170B                     l3907:
  4084                           
  4085                           ;../Washing_machine_simulator-using-PIC16F877A-main/main.c: 403:         clcd_print("Ple
      +                          ase Close", (0x90 + 0));
  4086     170B  30A1               	movlw	low (STR_29| (0+32768))
  4087     170C  00F6               	movwf	clcd_print@str
  4088     170D  3090               	movlw	high (STR_29| (0+32768))
  4089     170E  00F7               	movwf	clcd_print@str+1
  4090     170F  3090               	movlw	144
  4091     1710  00F8               	movwf	clcd_print@addr
  4092     1711  160A  118A  25F2  160A  118A  	fcall	_clcd_print
  4093     1716                     l271:	
  4094                           ;../Washing_machine_simulator-using-PIC16F877A-main/main.c: 407:         {;../Washing_ma
      +                          chine_simulator-using-PIC16F877A-main/main.c: 409:         }
  4095                           
  4096                           
  4097                           ;../Washing_machine_simulator-using-PIC16F877A-main/main.c: 406:         while( RB0 == 0
      +                           )
  4098     1716  1283               	bcf	3,5	;RP0=0, select bank0
  4099     1717  1303               	bcf	3,6	;RP1=0, select bank0
  4100     1718  1C06               	btfss	6,0	;volatile
  4101     1719  2F1B               	goto	u5341
  4102     171A  2F1C               	goto	u5340
  4103     171B                     u5341:
  4104     171B  2F16               	goto	l271
  4105     171C                     u5340:
  4106     171C                     l3909:
  4107                           
  4108                           ;../Washing_machine_simulator-using-PIC16F877A-main/main.c: 410:         clear_screen();
  4109     171C  160A  118A  251E  160A  118A  	fcall	_clear_screen
  4110     1721                     l3911:
  4111                           
  4112                           ;../Washing_machine_simulator-using-PIC16F877A-main/main.c: 412:         RC2 = 1;
  4113     1721  1283               	bcf	3,5	;RP0=0, select bank0
  4114     1722  1303               	bcf	3,6	;RP1=0, select bank0
  4115     1723  1507               	bsf	7,2	;volatile
  4116     1724                     l3913:
  4117                           
  4118                           ;../Washing_machine_simulator-using-PIC16F877A-main/main.c: 413:         TMR2ON = 1;
  4119     1724  1512               	bsf	18,2	;volatile
  4120     1725                     l3915:
  4121                           
  4122                           ;../Washing_machine_simulator-using-PIC16F877A-main/main.c: 415:         RC1 = 0;
  4123     1725  1087               	bcf	7,1	;volatile
  4124     1726                     l3917:
  4125                           
  4126                           ;../Washing_machine_simulator-using-PIC16F877A-main/main.c: 416:         clcd_print("Fun
      +                          ction -", (0x80 + 0));
  4127     1726  30DF               	movlw	low (STR_30| (0+32768))
  4128     1727  00F6               	movwf	clcd_print@str
  4129     1728  3090               	movlw	high (STR_30| (0+32768))
  4130     1729  00F7               	movwf	clcd_print@str+1
  4131     172A  3080               	movlw	128
  4132     172B  00F8               	movwf	clcd_print@addr
  4133     172C  160A  118A  25F2  160A  118A  	fcall	_clcd_print
  4134     1731                     l3919:
  4135                           
  4136                           ;../Washing_machine_simulator-using-PIC16F877A-main/main.c: 417:         clcd_print("TIM
      +                          E", (0xC0 + 0));
  4137     1731  3080               	movlw	low (STR_31| (0+32768))
  4138     1732  00F6               	movwf	clcd_print@str
  4139     1733  3091               	movlw	high (STR_31| (0+32768))
  4140     1734  00F7               	movwf	clcd_print@str+1
  4141     1735  30C0               	movlw	192
  4142     1736  00F8               	movwf	clcd_print@addr
  4143     1737  160A  118A  25F2  160A  118A  	fcall	_clcd_print
  4144     173C                     l3921:
  4145                           
  4146                           ;../Washing_machine_simulator-using-PIC16F877A-main/main.c: 418:         clcd_print("5-S
      +                          TART  6-PAUSE", (0xD0 + 0));
  4147     173C  3044               	movlw	low (STR_32| (0+32768))
  4148     173D  00F6               	movwf	clcd_print@str
  4149     173E  3090               	movlw	high (STR_32| (0+32768))
  4150     173F  00F7               	movwf	clcd_print@str+1
  4151     1740  30D0               	movlw	208
  4152     1741  00F8               	movwf	clcd_print@addr
  4153     1742  160A  118A  25F2  160A  118A  	fcall	_clcd_print
  4154     1747                     l274:
  4155     1747  0008               	return
  4156     1748                     __end_of_door_status_check:
  4157                           
  4158                           	psect	text6
  4159     151E                     __ptext6:	
  4160 ;; *************** function _clear_screen *****************
  4161 ;; Defined at:
  4162 ;;		line 135 in file "../Washing_machine_simulator-using-PIC16F877A-main/main.c"
  4163 ;; Parameters:    Size  Location     Type
  4164 ;;		None
  4165 ;; Auto vars:     Size  Location     Type
  4166 ;;		None
  4167 ;; Return value:  Size  Location     Type
  4168 ;;                  1    wreg      void 
  4169 ;; Registers used:
  4170 ;;		wreg, status,2, status,0, pclath, cstack
  4171 ;; Tracked objects:
  4172 ;;		On entry : 0/0
  4173 ;;		On exit  : 0/0
  4174 ;;		Unchanged: 0/0
  4175 ;; Data sizes:     COMMON   BANK0   BANK1   BANK3   BANK2
  4176 ;;      Params:         0       0       0       0       0
  4177 ;;      Locals:         0       0       0       0       0
  4178 ;;      Temps:          1       0       0       0       0
  4179 ;;      Totals:         1       0       0       0       0
  4180 ;;Total ram usage:        1 bytes
  4181 ;; Hardware stack levels used: 1
  4182 ;; Hardware stack levels required when called: 2
  4183 ;; This function calls:
  4184 ;;		_clcd_write
  4185 ;; This function is called by:
  4186 ;;		_main
  4187 ;;		_washing_program_display
  4188 ;;		_water_level_display
  4189 ;;		_door_status_check
  4190 ;;		_run_program
  4191 ;; This function uses a non-reentrant model
  4192 ;;
  4193                           
  4194     151E                     _clear_screen:	
  4195                           ;psect for function _clear_screen
  4196                           
  4197     151E                     l3885:	
  4198                           ;incstack = 0
  4199                           ; Regs used in _clear_screen: [wreg+status,2+status,0+pclath+cstack]
  4200                           
  4201                           
  4202                           ;../Washing_machine_simulator-using-PIC16F877A-main/main.c: 137:      clcd_write(0x01, 0
      +                          );
  4203     151E  01F2               	clrf	clcd_write@mode
  4204     151F  3001               	movlw	1
  4205     1520  160A  118A  253E  160A  118A  	fcall	_clcd_write
  4206     1525                     l3887:
  4207                           
  4208                           ;../Washing_machine_simulator-using-PIC16F877A-main/main.c: 138:      _delay((unsigned l
      +                          ong)((100)*(20000000/4000000.0)));
  4209     1525  30A6               	movlw	166
  4210     1526  00F6               	movwf	??_clear_screen
  4211     1527                     u5827:
  4212     1527  0BF6               	decfsz	??_clear_screen,f
  4213     1528  2D27               	goto	u5827
  4214     1529  0000               	nop
  4215     152A                     l179:
  4216     152A  0008               	return
  4217     152B                     __end_of_clear_screen:
  4218                           
  4219                           	psect	text7
  4220     0728                     __ptext7:	
  4221 ;; *************** function ___xxtofl *****************
  4222 ;; Defined at:
  4223 ;;		line 10 in file "C:\Program Files\Microchip\xc8\v2.46\pic\sources\c99\common\xxtofl.c"
  4224 ;; Parameters:    Size  Location     Type
  4225 ;;  sign            1    wreg     unsigned char 
  4226 ;;  val             4    2[COMMON] long 
  4227 ;; Auto vars:     Size  Location     Type
  4228 ;;  sign            1    4[BANK0 ] unsigned char 
  4229 ;;  arg             4    6[BANK0 ] unsigned long 
  4230 ;;  exp             1    5[BANK0 ] unsigned char 
  4231 ;; Return value:  Size  Location     Type
  4232 ;;                  4    2[COMMON] unsigned char 
  4233 ;; Registers used:
  4234 ;;		wreg, status,2, status,0, btemp+1
  4235 ;; Tracked objects:
  4236 ;;		On entry : 0/0
  4237 ;;		On exit  : 0/0
  4238 ;;		Unchanged: 0/0
  4239 ;; Data sizes:     COMMON   BANK0   BANK1   BANK3   BANK2
  4240 ;;      Params:         4       0       0       0       0
  4241 ;;      Locals:         0       6       0       0       0
  4242 ;;      Temps:          0       4       0       0       0
  4243 ;;      Totals:         4      10       0       0       0
  4244 ;;Total ram usage:       14 bytes
  4245 ;; Hardware stack levels used: 1
  4246 ;; Hardware stack levels required when called: 1
  4247 ;; This function calls:
  4248 ;;		Nothing
  4249 ;; This function is called by:
  4250 ;;		_run_program
  4251 ;; This function uses a non-reentrant model
  4252 ;;
  4253                           
  4254     0728                     ___xxtofl:	
  4255                           ;psect for function ___xxtofl
  4256                           
  4257                           
  4258                           ;incstack = 0
  4259                           ; Regs used in ___xxtofl: [wreg+status,2+status,0+btemp+1]
  4260                           ;___xxtofl@sign stored from wreg
  4261     0728  1283               	bcf	3,5	;RP0=0, select bank0
  4262     0729  1303               	bcf	3,6	;RP1=0, select bank0
  4263     072A  00A4               	movwf	___xxtofl@sign
  4264     072B                     l3373:
  4265     072B  0824               	movf	___xxtofl@sign,w
  4266     072C  1903               	btfsc	3,2
  4267     072D  2F2F               	goto	u4711
  4268     072E  2F30               	goto	u4710
  4269     072F                     u4711:
  4270     072F  2F44               	goto	l3379
  4271     0730                     u4710:
  4272     0730                     l3375:
  4273     0730  1FF5               	btfss	___xxtofl@val+3,7
  4274     0731  2F33               	goto	u4721
  4275     0732  2F34               	goto	u4720
  4276     0733                     u4721:
  4277     0733  2F44               	goto	l3379
  4278     0734                     u4720:
  4279     0734                     l3377:
  4280     0734  0972               	comf	___xxtofl@val,w
  4281     0735  00A6               	movwf	___xxtofl@arg
  4282     0736  0973               	comf	___xxtofl@val+1,w
  4283     0737  00A7               	movwf	___xxtofl@arg+1
  4284     0738  0974               	comf	___xxtofl@val+2,w
  4285     0739  00A8               	movwf	___xxtofl@arg+2
  4286     073A  0975               	comf	___xxtofl@val+3,w
  4287     073B  00A9               	movwf	___xxtofl@arg+3
  4288     073C  0AA6               	incf	___xxtofl@arg,f
  4289     073D  1903               	skipnz
  4290     073E  0AA7               	incf	___xxtofl@arg+1,f
  4291     073F  1903               	skipnz
  4292     0740  0AA8               	incf	___xxtofl@arg+2,f
  4293     0741  1903               	skipnz
  4294     0742  0AA9               	incf	___xxtofl@arg+3,f
  4295     0743  2F4C               	goto	l836
  4296     0744                     l3379:
  4297     0744  0875               	movf	___xxtofl@val+3,w
  4298     0745  00A9               	movwf	___xxtofl@arg+3
  4299     0746  0874               	movf	___xxtofl@val+2,w
  4300     0747  00A8               	movwf	___xxtofl@arg+2
  4301     0748  0873               	movf	___xxtofl@val+1,w
  4302     0749  00A7               	movwf	___xxtofl@arg+1
  4303     074A  0872               	movf	___xxtofl@val,w
  4304     074B  00A6               	movwf	___xxtofl@arg
  4305     074C                     l836:
  4306     074C  0875               	movf	___xxtofl@val+3,w
  4307     074D  0474               	iorwf	___xxtofl@val+2,w
  4308     074E  0473               	iorwf	___xxtofl@val+1,w
  4309     074F  0472               	iorwf	___xxtofl@val,w
  4310     0750  1D03               	skipz
  4311     0751  2F53               	goto	u4731
  4312     0752  2F54               	goto	u4730
  4313     0753                     u4731:
  4314     0753  2F5D               	goto	l3385
  4315     0754                     u4730:
  4316     0754                     l3381:
  4317     0754  3000               	movlw	0
  4318     0755  00F5               	movwf	?___xxtofl+3
  4319     0756  3000               	movlw	0
  4320     0757  00F4               	movwf	?___xxtofl+2
  4321     0758  3000               	movlw	0
  4322     0759  00F3               	movwf	?___xxtofl+1
  4323     075A  3000               	movlw	0
  4324     075B  00F2               	movwf	?___xxtofl
  4325     075C  2FE1               	goto	l838
  4326     075D                     l3385:
  4327     075D  3096               	movlw	150
  4328     075E  00A5               	movwf	___xxtofl@exp
  4329     075F  2F6D               	goto	l3391
  4330     0760                     l3387:
  4331     0760  3001               	movlw	1
  4332     0761  00FF               	movwf	btemp+1
  4333     0762  087F               	movf	btemp+1,w
  4334     0763  07A5               	addwf	___xxtofl@exp,f
  4335     0764                     l3389:
  4336     0764  3001               	movlw	1
  4337     0765                     u4745:
  4338     0765  1003               	clrc
  4339     0766  0CA9               	rrf	___xxtofl@arg+3,f
  4340     0767  0CA8               	rrf	___xxtofl@arg+2,f
  4341     0768  0CA7               	rrf	___xxtofl@arg+1,f
  4342     0769  0CA6               	rrf	___xxtofl@arg,f
  4343     076A  3EFF               	addlw	-1
  4344     076B  1D03               	skipz
  4345     076C  2F65               	goto	u4745
  4346     076D                     l3391:
  4347     076D  30FE               	movlw	254
  4348     076E  0529               	andwf	___xxtofl@arg+3,w
  4349     076F  1D03               	btfss	3,2
  4350     0770  2F72               	goto	u4751
  4351     0771  2F73               	goto	u4750
  4352     0772                     u4751:
  4353     0772  2F60               	goto	l3387
  4354     0773                     u4750:
  4355     0773  2F8F               	goto	l3399
  4356     0774                     l3393:
  4357     0774  3001               	movlw	1
  4358     0775  00FF               	movwf	btemp+1
  4359     0776  087F               	movf	btemp+1,w
  4360     0777  07A5               	addwf	___xxtofl@exp,f
  4361     0778                     l3395:
  4362     0778  3001               	movlw	1
  4363     0779  07A6               	addwf	___xxtofl@arg,f
  4364     077A  3000               	movlw	0
  4365     077B  1803               	skipnc
  4366     077C  3001               	movlw	1
  4367     077D  07A7               	addwf	___xxtofl@arg+1,f
  4368     077E  3000               	movlw	0
  4369     077F  1803               	skipnc
  4370     0780  3001               	movlw	1
  4371     0781  07A8               	addwf	___xxtofl@arg+2,f
  4372     0782  3000               	movlw	0
  4373     0783  1803               	skipnc
  4374     0784  3001               	movlw	1
  4375     0785  07A9               	addwf	___xxtofl@arg+3,f
  4376     0786                     l3397:
  4377     0786  3001               	movlw	1
  4378     0787                     u4765:
  4379     0787  1003               	clrc
  4380     0788  0CA9               	rrf	___xxtofl@arg+3,f
  4381     0789  0CA8               	rrf	___xxtofl@arg+2,f
  4382     078A  0CA7               	rrf	___xxtofl@arg+1,f
  4383     078B  0CA6               	rrf	___xxtofl@arg,f
  4384     078C  3EFF               	addlw	-1
  4385     078D  1D03               	skipz
  4386     078E  2F87               	goto	u4765
  4387     078F                     l3399:
  4388     078F  30FF               	movlw	255
  4389     0790  0529               	andwf	___xxtofl@arg+3,w
  4390     0791  1D03               	btfss	3,2
  4391     0792  2F94               	goto	u4771
  4392     0793  2F95               	goto	u4770
  4393     0794                     u4771:
  4394     0794  2F74               	goto	l3393
  4395     0795                     u4770:
  4396     0795  2FA1               	goto	l3403
  4397     0796                     l3401:
  4398     0796  3001               	movlw	1
  4399     0797  02A5               	subwf	___xxtofl@exp,f
  4400     0798  3001               	movlw	1
  4401     0799  00A0               	movwf	??___xxtofl
  4402     079A                     u4785:
  4403     079A  1003               	clrc
  4404     079B  0DA6               	rlf	___xxtofl@arg,f
  4405     079C  0DA7               	rlf	___xxtofl@arg+1,f
  4406     079D  0DA8               	rlf	___xxtofl@arg+2,f
  4407     079E  0DA9               	rlf	___xxtofl@arg+3,f
  4408     079F  0BA0               	decfsz	??___xxtofl,f
  4409     07A0  2F9A               	goto	u4785
  4410     07A1                     l3403:
  4411     07A1  1BA8               	btfsc	___xxtofl@arg+2,7
  4412     07A2  2FA4               	goto	u4791
  4413     07A3  2FA5               	goto	u4790
  4414     07A4                     u4791:
  4415     07A4  2FAB               	goto	l849
  4416     07A5                     u4790:
  4417     07A5                     l3405:
  4418     07A5  3002               	movlw	2
  4419     07A6  0225               	subwf	___xxtofl@exp,w
  4420     07A7  1803               	skipnc
  4421     07A8  2FAA               	goto	u4801
  4422     07A9  2FAB               	goto	u4800
  4423     07AA                     u4801:
  4424     07AA  2F96               	goto	l3401
  4425     07AB                     u4800:
  4426     07AB                     l849:
  4427     07AB  1825               	btfsc	___xxtofl@exp,0
  4428     07AC  2FAE               	goto	u4811
  4429     07AD  2FAF               	goto	u4810
  4430     07AE                     u4811:
  4431     07AE  2FB7               	goto	l850
  4432     07AF                     u4810:
  4433     07AF                     l3407:
  4434     07AF  30FF               	movlw	255
  4435     07B0  05A6               	andwf	___xxtofl@arg,f
  4436     07B1  30FF               	movlw	255
  4437     07B2  05A7               	andwf	___xxtofl@arg+1,f
  4438     07B3  307F               	movlw	127
  4439     07B4  05A8               	andwf	___xxtofl@arg+2,f
  4440     07B5  30FF               	movlw	255
  4441     07B6  05A9               	andwf	___xxtofl@arg+3,f
  4442     07B7                     l850:
  4443     07B7  1003               	clrc
  4444     07B8  0CA5               	rrf	___xxtofl@exp,f
  4445     07B9                     l3409:
  4446     07B9  0825               	movf	___xxtofl@exp,w
  4447     07BA  00A0               	movwf	??___xxtofl
  4448     07BB  01A1               	clrf	??___xxtofl+1
  4449     07BC  01A2               	clrf	??___xxtofl+2
  4450     07BD  01A3               	clrf	??___xxtofl+3
  4451     07BE  3018               	movlw	24
  4452     07BF                     u4825:
  4453     07BF  1003               	clrc
  4454     07C0  0DA0               	rlf	??___xxtofl,f
  4455     07C1  0DA1               	rlf	??___xxtofl+1,f
  4456     07C2  0DA2               	rlf	??___xxtofl+2,f
  4457     07C3  0DA3               	rlf	??___xxtofl+3,f
  4458     07C4                     u4820:
  4459     07C4  3EFF               	addlw	-1
  4460     07C5  1D03               	skipz
  4461     07C6  2FBF               	goto	u4825
  4462     07C7  0820               	movf	??___xxtofl,w
  4463     07C8  04A6               	iorwf	___xxtofl@arg,f
  4464     07C9  0821               	movf	??___xxtofl+1,w
  4465     07CA  04A7               	iorwf	___xxtofl@arg+1,f
  4466     07CB  0822               	movf	??___xxtofl+2,w
  4467     07CC  04A8               	iorwf	___xxtofl@arg+2,f
  4468     07CD  0823               	movf	??___xxtofl+3,w
  4469     07CE  04A9               	iorwf	___xxtofl@arg+3,f
  4470     07CF                     l3411:
  4471     07CF  0824               	movf	___xxtofl@sign,w
  4472     07D0  1903               	btfsc	3,2
  4473     07D1  2FD3               	goto	u4831
  4474     07D2  2FD4               	goto	u4830
  4475     07D3                     u4831:
  4476     07D3  2FD9               	goto	l3417
  4477     07D4                     u4830:
  4478     07D4                     l3413:
  4479     07D4  1FF5               	btfss	___xxtofl@val+3,7
  4480     07D5  2FD7               	goto	u4841
  4481     07D6  2FD8               	goto	u4840
  4482     07D7                     u4841:
  4483     07D7  2FD9               	goto	l3417
  4484     07D8                     u4840:
  4485     07D8                     l3415:
  4486     07D8  17A9               	bsf	___xxtofl@arg+3,7
  4487     07D9                     l3417:
  4488     07D9  0829               	movf	___xxtofl@arg+3,w
  4489     07DA  00F5               	movwf	?___xxtofl+3
  4490     07DB  0828               	movf	___xxtofl@arg+2,w
  4491     07DC  00F4               	movwf	?___xxtofl+2
  4492     07DD  0827               	movf	___xxtofl@arg+1,w
  4493     07DE  00F3               	movwf	?___xxtofl+1
  4494     07DF  0826               	movf	___xxtofl@arg,w
  4495     07E0  00F2               	movwf	?___xxtofl
  4496     07E1                     l838:
  4497     07E1  0008               	return
  4498     07E2                     __end_of___xxtofl:
  4499                           
  4500                           	psect	text8
  4501     15A4                     __ptext8:	
  4502 ;; *************** function ___wmul *****************
  4503 ;; Defined at:
  4504 ;;		line 15 in file "C:\Program Files\Microchip\xc8\v2.46\pic\sources\c99\common\Umul16.c"
  4505 ;; Parameters:    Size  Location     Type
  4506 ;;  multiplier      2    2[COMMON] unsigned int 
  4507 ;;  multiplicand    2    4[COMMON] unsigned int 
  4508 ;; Auto vars:     Size  Location     Type
  4509 ;;  product         2    6[COMMON] unsigned int 
  4510 ;; Return value:  Size  Location     Type
  4511 ;;                  2    2[COMMON] unsigned int 
  4512 ;; Registers used:
  4513 ;;		wreg, status,2, status,0
  4514 ;; Tracked objects:
  4515 ;;		On entry : 0/0
  4516 ;;		On exit  : 0/0
  4517 ;;		Unchanged: 0/0
  4518 ;; Data sizes:     COMMON   BANK0   BANK1   BANK3   BANK2
  4519 ;;      Params:         4       0       0       0       0
  4520 ;;      Locals:         2       0       0       0       0
  4521 ;;      Temps:          0       0       0       0       0
  4522 ;;      Totals:         6       0       0       0       0
  4523 ;;Total ram usage:        6 bytes
  4524 ;; Hardware stack levels used: 1
  4525 ;; Hardware stack levels required when called: 1
  4526 ;; This function calls:
  4527 ;;		Nothing
  4528 ;; This function is called by:
  4529 ;;		_run_program
  4530 ;; This function uses a non-reentrant model
  4531 ;;
  4532                           
  4533     15A4                     ___wmul:	
  4534                           ;psect for function ___wmul
  4535                           
  4536     15A4                     l3071:	
  4537                           ;incstack = 0
  4538                           ; Regs used in ___wmul: [wreg+status,2+status,0]
  4539                           
  4540     15A4  01F6               	clrf	___wmul@product
  4541     15A5  01F7               	clrf	___wmul@product+1
  4542     15A6                     l3073:
  4543     15A6  1C72               	btfss	___wmul@multiplier,0
  4544     15A7  2DA9               	goto	u3941
  4545     15A8  2DAA               	goto	u3940
  4546     15A9                     u3941:
  4547     15A9  2DB0               	goto	l395
  4548     15AA                     u3940:
  4549     15AA                     l3075:
  4550     15AA  0874               	movf	___wmul@multiplicand,w
  4551     15AB  07F6               	addwf	___wmul@product,f
  4552     15AC  1803               	skipnc
  4553     15AD  0AF7               	incf	___wmul@product+1,f
  4554     15AE  0875               	movf	___wmul@multiplicand+1,w
  4555     15AF  07F7               	addwf	___wmul@product+1,f
  4556     15B0                     l395:
  4557     15B0  3001               	movlw	1
  4558     15B1                     u3955:
  4559     15B1  1003               	clrc
  4560     15B2  0DF4               	rlf	___wmul@multiplicand,f
  4561     15B3  0DF5               	rlf	___wmul@multiplicand+1,f
  4562     15B4  3EFF               	addlw	-1
  4563     15B5  1D03               	skipz
  4564     15B6  2DB1               	goto	u3955
  4565     15B7                     l3077:
  4566     15B7  3001               	movlw	1
  4567     15B8                     u3965:
  4568     15B8  1003               	clrc
  4569     15B9  0CF3               	rrf	___wmul@multiplier+1,f
  4570     15BA  0CF2               	rrf	___wmul@multiplier,f
  4571     15BB  3EFF               	addlw	-1
  4572     15BC  1D03               	skipz
  4573     15BD  2DB8               	goto	u3965
  4574     15BE                     l3079:
  4575     15BE  0872               	movf	___wmul@multiplier,w
  4576     15BF  0473               	iorwf	___wmul@multiplier+1,w
  4577     15C0  1D03               	btfss	3,2
  4578     15C1  2DC3               	goto	u3971
  4579     15C2  2DC4               	goto	u3970
  4580     15C3                     u3971:
  4581     15C3  2DA6               	goto	l3073
  4582     15C4                     u3970:
  4583     15C4                     l3081:
  4584     15C4  0877               	movf	___wmul@product+1,w
  4585     15C5  00F3               	movwf	?___wmul+1
  4586     15C6  0876               	movf	___wmul@product,w
  4587     15C7  00F2               	movwf	?___wmul
  4588     15C8                     l397:
  4589     15C8  0008               	return
  4590     15C9                     __end_of___wmul:
  4591                           
  4592                           	psect	text9
  4593     0881                     __ptext9:	
  4594 ;; *************** function ___fltol *****************
  4595 ;; Defined at:
  4596 ;;		line 43 in file "C:\Program Files\Microchip\xc8\v2.46\pic\sources\c99\common\fltol.c"
  4597 ;; Parameters:    Size  Location     Type
  4598 ;;  f1              4   36[BANK0 ] unsigned int 
  4599 ;; Auto vars:     Size  Location     Type
  4600 ;;  exp1            1    7[COMMON] unsigned char 
  4601 ;;  sign1           1    6[COMMON] unsigned char 
  4602 ;; Return value:  Size  Location     Type
  4603 ;;                  4   36[BANK0 ] long 
  4604 ;; Registers used:
  4605 ;;		wreg, status,2, status,0, btemp+1
  4606 ;; Tracked objects:
  4607 ;;		On entry : 0/0
  4608 ;;		On exit  : 0/0
  4609 ;;		Unchanged: 0/0
  4610 ;; Data sizes:     COMMON   BANK0   BANK1   BANK3   BANK2
  4611 ;;      Params:         0       4       0       0       0
  4612 ;;      Locals:         2       0       0       0       0
  4613 ;;      Temps:          0       4       0       0       0
  4614 ;;      Totals:         2       8       0       0       0
  4615 ;;Total ram usage:       10 bytes
  4616 ;; Hardware stack levels used: 1
  4617 ;; Hardware stack levels required when called: 1
  4618 ;; This function calls:
  4619 ;;		Nothing
  4620 ;; This function is called by:
  4621 ;;		_run_program
  4622 ;; This function uses a non-reentrant model
  4623 ;;
  4624                           
  4625     0881                     ___fltol:	
  4626                           ;psect for function ___fltol
  4627                           
  4628     0881                     l3187:	
  4629                           ;incstack = 0
  4630                           ; Regs used in ___fltol: [wreg+status,2+status,0+btemp+1]
  4631                           
  4632     0881  1003               	clrc
  4633     0882  1283               	bcf	3,5	;RP0=0, select bank0
  4634     0883  1303               	bcf	3,6	;RP1=0, select bank0
  4635     0884  0D46               	rlf	___fltol@f1+2,w
  4636     0885  0D47               	rlf	___fltol@f1+3,w
  4637     0886  00F7               	movwf	___fltol@exp1
  4638     0887  0877               	movf	___fltol@exp1,w
  4639     0888  1D03               	btfss	3,2
  4640     0889  288B               	goto	u4241
  4641     088A  288C               	goto	u4240
  4642     088B                     u4241:
  4643     088B  2895               	goto	l3193
  4644     088C                     u4240:
  4645     088C                     l3189:
  4646     088C  3000               	movlw	0
  4647     088D  00C7               	movwf	?___fltol+3
  4648     088E  3000               	movlw	0
  4649     088F  00C6               	movwf	?___fltol+2
  4650     0890  3000               	movlw	0
  4651     0891  00C5               	movwf	?___fltol+1
  4652     0892  3000               	movlw	0
  4653     0893  00C4               	movwf	?___fltol
  4654     0894  28F8               	goto	l589
  4655     0895                     l3193:
  4656     0895  0844               	movf	___fltol@f1,w
  4657     0896  00C8               	movwf	??___fltol
  4658     0897  0845               	movf	___fltol@f1+1,w
  4659     0898  00C9               	movwf	??___fltol+1
  4660     0899  0846               	movf	___fltol@f1+2,w
  4661     089A  00CA               	movwf	??___fltol+2
  4662     089B  0847               	movf	___fltol@f1+3,w
  4663     089C  00CB               	movwf	??___fltol+3
  4664     089D  301F               	movlw	31
  4665     089E                     u4255:
  4666     089E  1003               	clrc
  4667     089F  0CCB               	rrf	??___fltol+3,f
  4668     08A0  0CCA               	rrf	??___fltol+2,f
  4669     08A1  0CC9               	rrf	??___fltol+1,f
  4670     08A2  0CC8               	rrf	??___fltol,f
  4671     08A3                     u4250:
  4672     08A3  3EFF               	addlw	-1
  4673     08A4  1D03               	skipz
  4674     08A5  289E               	goto	u4255
  4675     08A6  0848               	movf	??___fltol,w
  4676     08A7  00F6               	movwf	___fltol@sign1
  4677     08A8                     l3195:
  4678     08A8  17C6               	bsf	___fltol@f1+2,7
  4679     08A9                     l3197:
  4680     08A9  30FF               	movlw	255
  4681     08AA  05C4               	andwf	___fltol@f1,f
  4682     08AB  30FF               	movlw	255
  4683     08AC  05C5               	andwf	___fltol@f1+1,f
  4684     08AD  30FF               	movlw	255
  4685     08AE  05C6               	andwf	___fltol@f1+2,f
  4686     08AF  3000               	movlw	0
  4687     08B0  05C7               	andwf	___fltol@f1+3,f
  4688     08B1                     l3199:
  4689     08B1  3096               	movlw	150
  4690     08B2  02F7               	subwf	___fltol@exp1,f
  4691     08B3                     l3201:
  4692     08B3  1FF7               	btfss	___fltol@exp1,7
  4693     08B4  28B6               	goto	u4261
  4694     08B5  28B7               	goto	u4260
  4695     08B6                     u4261:
  4696     08B6  28D1               	goto	l3213
  4697     08B7                     u4260:
  4698     08B7                     l3203:
  4699     08B7  0877               	movf	___fltol@exp1,w
  4700     08B8  3A80               	xorlw	128
  4701     08B9  3E97               	addlw	151
  4702     08BA  1803               	skipnc
  4703     08BB  28BD               	goto	u4271
  4704     08BC  28BE               	goto	u4270
  4705     08BD                     u4271:
  4706     08BD  28BF               	goto	l3209
  4707     08BE                     u4270:
  4708     08BE  288C               	goto	l3189
  4709     08BF                     l3209:
  4710     08BF  3001               	movlw	1
  4711     08C0                     u4285:
  4712     08C0  1003               	clrc
  4713     08C1  0CC7               	rrf	___fltol@f1+3,f
  4714     08C2  0CC6               	rrf	___fltol@f1+2,f
  4715     08C3  0CC5               	rrf	___fltol@f1+1,f
  4716     08C4  0CC4               	rrf	___fltol@f1,f
  4717     08C5  3EFF               	addlw	-1
  4718     08C6  1D03               	skipz
  4719     08C7  28C0               	goto	u4285
  4720     08C8                     l3211:
  4721     08C8  3001               	movlw	1
  4722     08C9  00FF               	movwf	btemp+1
  4723     08CA  087F               	movf	btemp+1,w
  4724     08CB  07F7               	addwf	___fltol@exp1,f
  4725     08CC  1D03               	btfss	3,2
  4726     08CD  28CF               	goto	u4291
  4727     08CE  28D0               	goto	u4290
  4728     08CF                     u4291:
  4729     08CF  28BF               	goto	l3209
  4730     08D0                     u4290:
  4731     08D0  28E8               	goto	l3221
  4732     08D1                     l3213:
  4733     08D1  3020               	movlw	32
  4734     08D2  0277               	subwf	___fltol@exp1,w
  4735     08D3  1C03               	skipc
  4736     08D4  28D6               	goto	u4301
  4737     08D5  28D7               	goto	u4300
  4738     08D6                     u4301:
  4739     08D6  28E3               	goto	l596
  4740     08D7                     u4300:
  4741     08D7  288C               	goto	l3189
  4742     08D8                     l3219:
  4743     08D8  3001               	movlw	1
  4744     08D9  00C8               	movwf	??___fltol
  4745     08DA                     u4315:
  4746     08DA  1003               	clrc
  4747     08DB  0DC4               	rlf	___fltol@f1,f
  4748     08DC  0DC5               	rlf	___fltol@f1+1,f
  4749     08DD  0DC6               	rlf	___fltol@f1+2,f
  4750     08DE  0DC7               	rlf	___fltol@f1+3,f
  4751     08DF  0BC8               	decfsz	??___fltol,f
  4752     08E0  28DA               	goto	u4315
  4753     08E1  3001               	movlw	1
  4754     08E2  02F7               	subwf	___fltol@exp1,f
  4755     08E3                     l596:
  4756     08E3  0877               	movf	___fltol@exp1,w
  4757     08E4  1D03               	btfss	3,2
  4758     08E5  28E7               	goto	u4321
  4759     08E6  28E8               	goto	u4320
  4760     08E7                     u4321:
  4761     08E7  28D8               	goto	l3219
  4762     08E8                     u4320:
  4763     08E8                     l3221:
  4764     08E8  0876               	movf	___fltol@sign1,w
  4765     08E9  1903               	btfsc	3,2
  4766     08EA  28EC               	goto	u4331
  4767     08EB  28ED               	goto	u4330
  4768     08EC                     u4331:
  4769     08EC  28F8               	goto	l599
  4770     08ED                     u4330:
  4771     08ED                     l3223:
  4772     08ED  09C4               	comf	___fltol@f1,f
  4773     08EE  09C5               	comf	___fltol@f1+1,f
  4774     08EF  09C6               	comf	___fltol@f1+2,f
  4775     08F0  09C7               	comf	___fltol@f1+3,f
  4776     08F1  0AC4               	incf	___fltol@f1,f
  4777     08F2  1903               	skipnz
  4778     08F3  0AC5               	incf	___fltol@f1+1,f
  4779     08F4  1903               	skipnz
  4780     08F5  0AC6               	incf	___fltol@f1+2,f
  4781     08F6  1903               	skipnz
  4782     08F7  0AC7               	incf	___fltol@f1+3,f
  4783     08F8                     l599:
  4784     08F8                     l589:
  4785     08F8  0008               	return
  4786     08F9                     __end_of___fltol:
  4787                           
  4788                           	psect	text10
  4789     1580                     __ptext10:	
  4790 ;; *************** function ___flsub *****************
  4791 ;; Defined at:
  4792 ;;		line 242 in file "C:\Program Files\Microchip\xc8\v2.46\pic\sources\c99\common\sprcadd.c"
  4793 ;; Parameters:    Size  Location     Type
  4794 ;;  a               4   36[BANK0 ] long 
  4795 ;;  b               4   40[BANK0 ] long 
  4796 ;; Auto vars:     Size  Location     Type
  4797 ;;		None
  4798 ;; Return value:  Size  Location     Type
  4799 ;;                  4   36[BANK0 ] long 
  4800 ;; Registers used:
  4801 ;;		wreg, status,2, status,0, btemp+1, pclath, cstack
  4802 ;; Tracked objects:
  4803 ;;		On entry : 0/0
  4804 ;;		On exit  : 0/0
  4805 ;;		Unchanged: 0/0
  4806 ;; Data sizes:     COMMON   BANK0   BANK1   BANK3   BANK2
  4807 ;;      Params:         0       8       0       0       0
  4808 ;;      Locals:         0       0       0       0       0
  4809 ;;      Temps:          0       0       0       0       0
  4810 ;;      Totals:         0       8       0       0       0
  4811 ;;Total ram usage:        8 bytes
  4812 ;; Hardware stack levels used: 1
  4813 ;; Hardware stack levels required when called: 2
  4814 ;; This function calls:
  4815 ;;		___fladd
  4816 ;; This function is called by:
  4817 ;;		_run_program
  4818 ;; This function uses a non-reentrant model
  4819 ;;
  4820                           
  4821     1580                     ___flsub:	
  4822                           ;psect for function ___flsub
  4823                           
  4824     1580                     l3225:	
  4825                           ;incstack = 0
  4826                           ; Regs used in ___flsub: [wreg+status,2+status,0+btemp+1+pclath+cstack]
  4827                           
  4828     1580  3080               	movlw	128
  4829     1581  1283               	bcf	3,5	;RP0=0, select bank0
  4830     1582  1303               	bcf	3,6	;RP1=0, select bank0
  4831     1583  06C7               	xorwf	___flsub@a+3,f
  4832     1584                     l3227:
  4833     1584  084B               	movf	___flsub@b+3,w
  4834     1585  00A3               	movwf	___fladd@b+3
  4835     1586  084A               	movf	___flsub@b+2,w
  4836     1587  00A2               	movwf	___fladd@b+2
  4837     1588  0849               	movf	___flsub@b+1,w
  4838     1589  00A1               	movwf	___fladd@b+1
  4839     158A  0848               	movf	___flsub@b,w
  4840     158B  00A0               	movwf	___fladd@b
  4841     158C  0847               	movf	___flsub@a+3,w
  4842     158D  00A7               	movwf	___fladd@a+3
  4843     158E  0846               	movf	___flsub@a+2,w
  4844     158F  00A6               	movwf	___fladd@a+2
  4845     1590  0845               	movf	___flsub@a+1,w
  4846     1591  00A5               	movwf	___fladd@a+1
  4847     1592  0844               	movf	___flsub@a,w
  4848     1593  00A4               	movwf	___fladd@a
  4849     1594  120A  158A  25A0  160A  118A  	fcall	___fladd
  4850     1599  1283               	bcf	3,5	;RP0=0, select bank0
  4851     159A  1303               	bcf	3,6	;RP1=0, select bank0
  4852     159B  0823               	movf	?___fladd+3,w
  4853     159C  00C7               	movwf	?___flsub+3
  4854     159D  0822               	movf	?___fladd+2,w
  4855     159E  00C6               	movwf	?___flsub+2
  4856     159F  0821               	movf	?___fladd+1,w
  4857     15A0  00C5               	movwf	?___flsub+1
  4858     15A1  0820               	movf	?___fladd,w
  4859     15A2  00C4               	movwf	?___flsub
  4860     15A3                     l742:
  4861     15A3  0008               	return
  4862     15A4                     __end_of___flsub:
  4863                           
  4864                           	psect	text11
  4865     0DA0                     __ptext11:	
  4866 ;; *************** function ___fladd *****************
  4867 ;; Defined at:
  4868 ;;		line 10 in file "C:\Program Files\Microchip\xc8\v2.46\pic\sources\c99\common\sprcadd.c"
  4869 ;; Parameters:    Size  Location     Type
  4870 ;;  b               4    0[BANK0 ] long 
  4871 ;;  a               4    4[BANK0 ] long 
  4872 ;; Auto vars:     Size  Location     Type
  4873 ;;  grs             1    5[COMMON] unsigned char 
  4874 ;;  bexp            1    4[COMMON] unsigned char 
  4875 ;;  aexp            1    3[COMMON] unsigned char 
  4876 ;;  signs           1    2[COMMON] unsigned char 
  4877 ;; Return value:  Size  Location     Type
  4878 ;;                  4    0[BANK0 ] unsigned char 
  4879 ;; Registers used:
  4880 ;;		wreg, status,2, status,0, btemp+1
  4881 ;; Tracked objects:
  4882 ;;		On entry : 0/0
  4883 ;;		On exit  : 0/0
  4884 ;;		Unchanged: 0/0
  4885 ;; Data sizes:     COMMON   BANK0   BANK1   BANK3   BANK2
  4886 ;;      Params:         0       8       0       0       0
  4887 ;;      Locals:         4       0       0       0       0
  4888 ;;      Temps:          0       8       0       0       0
  4889 ;;      Totals:         4      16       0       0       0
  4890 ;;Total ram usage:       20 bytes
  4891 ;; Hardware stack levels used: 1
  4892 ;; Hardware stack levels required when called: 1
  4893 ;; This function calls:
  4894 ;;		Nothing
  4895 ;; This function is called by:
  4896 ;;		___flsub
  4897 ;; This function uses a non-reentrant model
  4898 ;;
  4899                           
  4900     0DA0                     ___fladd:	
  4901                           ;psect for function ___fladd
  4902                           
  4903     0DA0                     l2813:	
  4904                           ;incstack = 0
  4905                           ; Regs used in ___fladd: [wreg+status,2+status,0+btemp+1]
  4906                           
  4907     0DA0  1283               	bcf	3,5	;RP0=0, select bank0
  4908     0DA1  1303               	bcf	3,6	;RP1=0, select bank0
  4909     0DA2  0823               	movf	___fladd@b+3,w
  4910     0DA3  3980               	andlw	128
  4911     0DA4  00F2               	movwf	___fladd@signs
  4912     0DA5                     l2815:
  4913     0DA5  0823               	movf	___fladd@b+3,w
  4914     0DA6  00A8               	movwf	??___fladd
  4915     0DA7  0728               	addwf	??___fladd,w
  4916     0DA8  00F4               	movwf	___fladd@bexp
  4917     0DA9                     l2817:
  4918     0DA9  1FA2               	btfss	___fladd@b+2,7
  4919     0DAA  2DAC               	goto	u3431
  4920     0DAB  2DAD               	goto	u3430
  4921     0DAC                     u3431:
  4922     0DAC  2DAE               	goto	l2821
  4923     0DAD                     u3430:
  4924     0DAD                     l2819:
  4925     0DAD  1474               	bsf	___fladd@bexp,0
  4926     0DAE                     l2821:
  4927     0DAE  0874               	movf	___fladd@bexp,w
  4928     0DAF  1903               	btfsc	3,2
  4929     0DB0  2DB2               	goto	u3441
  4930     0DB1  2DB3               	goto	u3440
  4931     0DB2                     u3441:
  4932     0DB2  2DC3               	goto	l2831
  4933     0DB3                     u3440:
  4934     0DB3                     l2823:
  4935     0DB3  0A74               	incf	___fladd@bexp,w
  4936     0DB4  1D03               	btfss	3,2
  4937     0DB5  2DB7               	goto	u3451
  4938     0DB6  2DB8               	goto	u3450
  4939     0DB7                     u3451:
  4940     0DB7  2DC0               	goto	l2827
  4941     0DB8                     u3450:
  4942     0DB8                     l2825:
  4943     0DB8  3000               	movlw	0
  4944     0DB9  00A3               	movwf	___fladd@b+3
  4945     0DBA  3000               	movlw	0
  4946     0DBB  00A2               	movwf	___fladd@b+2
  4947     0DBC  3000               	movlw	0
  4948     0DBD  00A1               	movwf	___fladd@b+1
  4949     0DBE  3000               	movlw	0
  4950     0DBF  00A0               	movwf	___fladd@b
  4951     0DC0                     l2827:
  4952     0DC0  17A2               	bsf	___fladd@b+2,7
  4953     0DC1                     l2829:
  4954     0DC1  01A3               	clrf	___fladd@b+3
  4955     0DC2  2DCB               	goto	l2833
  4956     0DC3                     l2831:
  4957     0DC3  3000               	movlw	0
  4958     0DC4  00A3               	movwf	___fladd@b+3
  4959     0DC5  3000               	movlw	0
  4960     0DC6  00A2               	movwf	___fladd@b+2
  4961     0DC7  3000               	movlw	0
  4962     0DC8  00A1               	movwf	___fladd@b+1
  4963     0DC9  3000               	movlw	0
  4964     0DCA  00A0               	movwf	___fladd@b
  4965     0DCB                     l2833:
  4966     0DCB  0827               	movf	___fladd@a+3,w
  4967     0DCC  3980               	andlw	128
  4968     0DCD  00F3               	movwf	___fladd@aexp
  4969     0DCE                     l2835:
  4970     0DCE  0873               	movf	___fladd@aexp,w
  4971     0DCF  0672               	xorwf	___fladd@signs,w
  4972     0DD0  1903               	skipnz
  4973     0DD1  2DD3               	goto	u3461
  4974     0DD2  2DD4               	goto	u3460
  4975     0DD3                     u3461:
  4976     0DD3  2DD5               	goto	l2839
  4977     0DD4                     u3460:
  4978     0DD4                     l2837:
  4979     0DD4  1772               	bsf	___fladd@signs,6
  4980     0DD5                     l2839:
  4981     0DD5  0827               	movf	___fladd@a+3,w
  4982     0DD6  00A8               	movwf	??___fladd
  4983     0DD7  0728               	addwf	??___fladd,w
  4984     0DD8  00F3               	movwf	___fladd@aexp
  4985     0DD9                     l2841:
  4986     0DD9  1FA6               	btfss	___fladd@a+2,7
  4987     0DDA  2DDC               	goto	u3471
  4988     0DDB  2DDD               	goto	u3470
  4989     0DDC                     u3471:
  4990     0DDC  2DDE               	goto	l2845
  4991     0DDD                     u3470:
  4992     0DDD                     l2843:
  4993     0DDD  1473               	bsf	___fladd@aexp,0
  4994     0DDE                     l2845:
  4995     0DDE  0873               	movf	___fladd@aexp,w
  4996     0DDF  1903               	btfsc	3,2
  4997     0DE0  2DE2               	goto	u3481
  4998     0DE1  2DE3               	goto	u3480
  4999     0DE2                     u3481:
  5000     0DE2  2DF3               	goto	l2855
  5001     0DE3                     u3480:
  5002     0DE3                     l2847:
  5003     0DE3  0A73               	incf	___fladd@aexp,w
  5004     0DE4  1D03               	btfss	3,2
  5005     0DE5  2DE7               	goto	u3491
  5006     0DE6  2DE8               	goto	u3490
  5007     0DE7                     u3491:
  5008     0DE7  2DF0               	goto	l2851
  5009     0DE8                     u3490:
  5010     0DE8                     l2849:
  5011     0DE8  3000               	movlw	0
  5012     0DE9  00A7               	movwf	___fladd@a+3
  5013     0DEA  3000               	movlw	0
  5014     0DEB  00A6               	movwf	___fladd@a+2
  5015     0DEC  3000               	movlw	0
  5016     0DED  00A5               	movwf	___fladd@a+1
  5017     0DEE  3000               	movlw	0
  5018     0DEF  00A4               	movwf	___fladd@a
  5019     0DF0                     l2851:
  5020     0DF0  17A6               	bsf	___fladd@a+2,7
  5021     0DF1                     l2853:
  5022     0DF1  01A7               	clrf	___fladd@a+3
  5023     0DF2  2DFB               	goto	l696
  5024     0DF3                     l2855:
  5025     0DF3  3000               	movlw	0
  5026     0DF4  00A7               	movwf	___fladd@a+3
  5027     0DF5  3000               	movlw	0
  5028     0DF6  00A6               	movwf	___fladd@a+2
  5029     0DF7  3000               	movlw	0
  5030     0DF8  00A5               	movwf	___fladd@a+1
  5031     0DF9  3000               	movlw	0
  5032     0DFA  00A4               	movwf	___fladd@a
  5033     0DFB                     l696:
  5034     0DFB  0874               	movf	___fladd@bexp,w
  5035     0DFC  0273               	subwf	___fladd@aexp,w
  5036     0DFD  1803               	skipnc
  5037     0DFE  2E00               	goto	u3501
  5038     0DFF  2E01               	goto	u3500
  5039     0E00                     u3501:
  5040     0E00  2E27               	goto	l2891
  5041     0E01                     u3500:
  5042     0E01                     l2857:
  5043     0E01  1F72               	btfss	___fladd@signs,6
  5044     0E02  2E04               	goto	u3511
  5045     0E03  2E05               	goto	u3510
  5046     0E04                     u3511:
  5047     0E04  2E09               	goto	l2861
  5048     0E05                     u3510:
  5049     0E05                     l2859:
  5050     0E05  3080               	movlw	128
  5051     0E06  00FF               	movwf	btemp+1
  5052     0E07  087F               	movf	btemp+1,w
  5053     0E08  06F2               	xorwf	___fladd@signs,f
  5054     0E09                     l2861:
  5055     0E09  0874               	movf	___fladd@bexp,w
  5056     0E0A  00F5               	movwf	___fladd@grs
  5057     0E0B                     l2863:
  5058     0E0B  0873               	movf	___fladd@aexp,w
  5059     0E0C  00F4               	movwf	___fladd@bexp
  5060     0E0D                     l2865:
  5061     0E0D  0875               	movf	___fladd@grs,w
  5062     0E0E  00F3               	movwf	___fladd@aexp
  5063     0E0F                     l2867:
  5064     0E0F  0820               	movf	___fladd@b,w
  5065     0E10  00F5               	movwf	___fladd@grs
  5066     0E11                     l2869:
  5067     0E11  0824               	movf	___fladd@a,w
  5068     0E12  00A0               	movwf	___fladd@b
  5069     0E13                     l2871:
  5070     0E13  0875               	movf	___fladd@grs,w
  5071     0E14  00A4               	movwf	___fladd@a
  5072     0E15                     l2873:
  5073     0E15  0821               	movf	___fladd@b+1,w
  5074     0E16  00F5               	movwf	___fladd@grs
  5075     0E17                     l2875:
  5076     0E17  0825               	movf	___fladd@a+1,w
  5077     0E18  00A1               	movwf	___fladd@b+1
  5078     0E19                     l2877:
  5079     0E19  0875               	movf	___fladd@grs,w
  5080     0E1A  00A5               	movwf	___fladd@a+1
  5081     0E1B                     l2879:
  5082     0E1B  0822               	movf	___fladd@b+2,w
  5083     0E1C  00F5               	movwf	___fladd@grs
  5084     0E1D                     l2881:
  5085     0E1D  0826               	movf	___fladd@a+2,w
  5086     0E1E  00A2               	movwf	___fladd@b+2
  5087     0E1F                     l2883:
  5088     0E1F  0875               	movf	___fladd@grs,w
  5089     0E20  00A6               	movwf	___fladd@a+2
  5090     0E21                     l2885:
  5091     0E21  0823               	movf	___fladd@b+3,w
  5092     0E22  00F5               	movwf	___fladd@grs
  5093     0E23                     l2887:
  5094     0E23  0827               	movf	___fladd@a+3,w
  5095     0E24  00A3               	movwf	___fladd@b+3
  5096     0E25                     l2889:
  5097     0E25  0875               	movf	___fladd@grs,w
  5098     0E26  00A7               	movwf	___fladd@a+3
  5099     0E27                     l2891:
  5100     0E27  01F5               	clrf	___fladd@grs
  5101     0E28                     l2893:
  5102     0E28  0873               	movf	___fladd@aexp,w
  5103     0E29  00A8               	movwf	??___fladd
  5104     0E2A  01A9               	clrf	??___fladd+1
  5105     0E2B  0829               	movf	??___fladd+1,w
  5106     0E2C  00AB               	movwf	??___fladd+3
  5107     0E2D  0874               	movf	___fladd@bexp,w
  5108     0E2E  0228               	subwf	??___fladd,w
  5109     0E2F  00AA               	movwf	??___fladd+2
  5110     0E30  1C03               	skipc
  5111     0E31  03AB               	decf	??___fladd+3,f
  5112     0E32  082B               	movf	??___fladd+3,w
  5113     0E33  3A80               	xorlw	128
  5114     0E34  00FF               	movwf	btemp+1
  5115     0E35  3080               	movlw	128
  5116     0E36  027F               	subwf	btemp+1,w
  5117     0E37  1D03               	skipz
  5118     0E38  2E3B               	goto	u3525
  5119     0E39  301A               	movlw	26
  5120     0E3A  022A               	subwf	??___fladd+2,w
  5121     0E3B                     u3525:
  5122     0E3B  1C03               	skipc
  5123     0E3C  2E3E               	goto	u3521
  5124     0E3D  2E3F               	goto	u3520
  5125     0E3E                     u3521:
  5126     0E3E  2E7A               	goto	l2909
  5127     0E3F                     u3520:
  5128     0E3F                     l2895:
  5129     0E3F  1283               	bcf	3,5	;RP0=0, select bank0
  5130     0E40  1303               	bcf	3,6	;RP1=0, select bank0
  5131     0E41  0823               	movf	___fladd@b+3,w
  5132     0E42  0422               	iorwf	___fladd@b+2,w
  5133     0E43  0421               	iorwf	___fladd@b+1,w
  5134     0E44  0420               	iorwf	___fladd@b,w
  5135     0E45  1D03               	skipz
  5136     0E46  2E48               	goto	u3531
  5137     0E47  2E4A               	goto	u3530
  5138     0E48                     u3531:
  5139     0E48  3001               	movlw	1
  5140     0E49  2E4B               	goto	u3540
  5141     0E4A                     u3530:
  5142     0E4A  3000               	movlw	0
  5143     0E4B                     u3540:
  5144     0E4B  00F5               	movwf	___fladd@grs
  5145     0E4C  3000               	movlw	0
  5146     0E4D  00A3               	movwf	___fladd@b+3
  5147     0E4E  3000               	movlw	0
  5148     0E4F  00A2               	movwf	___fladd@b+2
  5149     0E50  3000               	movlw	0
  5150     0E51  00A1               	movwf	___fladd@b+1
  5151     0E52  3000               	movlw	0
  5152     0E53  00A0               	movwf	___fladd@b
  5153     0E54  0873               	movf	___fladd@aexp,w
  5154     0E55  00F4               	movwf	___fladd@bexp
  5155     0E56  2E80               	goto	l700
  5156     0E57                     l702:
  5157     0E57  1C75               	btfss	___fladd@grs,0
  5158     0E58  2E5A               	goto	u3551
  5159     0E59  2E5B               	goto	u3550
  5160     0E5A                     u3551:
  5161     0E5A  2E64               	goto	l2899
  5162     0E5B                     u3550:
  5163     0E5B                     l2897:
  5164     0E5B  0875               	movf	___fladd@grs,w
  5165     0E5C  1283               	bcf	3,5	;RP0=0, select bank0
  5166     0E5D  1303               	bcf	3,6	;RP1=0, select bank0
  5167     0E5E  00A8               	movwf	??___fladd
  5168     0E5F  1003               	clrc
  5169     0E60  0C28               	rrf	??___fladd,w
  5170     0E61  3801               	iorlw	1
  5171     0E62  00F5               	movwf	___fladd@grs
  5172     0E63  2E66               	goto	l2901
  5173     0E64                     l2899:
  5174     0E64  1003               	clrc
  5175     0E65  0CF5               	rrf	___fladd@grs,f
  5176     0E66                     l2901:
  5177     0E66  1283               	bcf	3,5	;RP0=0, select bank0
  5178     0E67  1303               	bcf	3,6	;RP1=0, select bank0
  5179     0E68  1C20               	btfss	___fladd@b,0
  5180     0E69  2E6B               	goto	u3561
  5181     0E6A  2E6C               	goto	u3560
  5182     0E6B                     u3561:
  5183     0E6B  2E6D               	goto	l2905
  5184     0E6C                     u3560:
  5185     0E6C                     l2903:
  5186     0E6C  17F5               	bsf	___fladd@grs,7
  5187     0E6D                     l2905:
  5188     0E6D  3001               	movlw	1
  5189     0E6E  00A8               	movwf	??___fladd
  5190     0E6F                     u3575:
  5191     0E6F  0D23               	rlf	___fladd@b+3,w
  5192     0E70  0CA3               	rrf	___fladd@b+3,f
  5193     0E71  0CA2               	rrf	___fladd@b+2,f
  5194     0E72  0CA1               	rrf	___fladd@b+1,f
  5195     0E73  0CA0               	rrf	___fladd@b,f
  5196     0E74  0BA8               	decfsz	??___fladd& (0+127),f
  5197     0E75  2E6F               	goto	u3575
  5198     0E76                     l2907:
  5199     0E76  3001               	movlw	1
  5200     0E77  00FF               	movwf	btemp+1
  5201     0E78  087F               	movf	btemp+1,w
  5202     0E79  07F4               	addwf	___fladd@bexp,f
  5203     0E7A                     l2909:
  5204     0E7A  0873               	movf	___fladd@aexp,w
  5205     0E7B  0274               	subwf	___fladd@bexp,w
  5206     0E7C  1C03               	skipc
  5207     0E7D  2E7F               	goto	u3581
  5208     0E7E  2E80               	goto	u3580
  5209     0E7F                     u3581:
  5210     0E7F  2E57               	goto	l702
  5211     0E80                     u3580:
  5212     0E80                     l700:
  5213     0E80  1B72               	btfsc	___fladd@signs,6
  5214     0E81  2E83               	goto	u3591
  5215     0E82  2E84               	goto	u3590
  5216     0E83                     u3591:
  5217     0E83  2ED1               	goto	l2935
  5218     0E84                     u3590:
  5219     0E84                     l2911:
  5220     0E84  0874               	movf	___fladd@bexp,w
  5221     0E85  1D03               	btfss	3,2
  5222     0E86  2E88               	goto	u3601
  5223     0E87  2E89               	goto	u3600
  5224     0E88                     u3601:
  5225     0E88  2E94               	goto	l2917
  5226     0E89                     u3600:
  5227     0E89                     l2913:
  5228     0E89  3000               	movlw	0
  5229     0E8A  1283               	bcf	3,5	;RP0=0, select bank0
  5230     0E8B  1303               	bcf	3,6	;RP1=0, select bank0
  5231     0E8C  00A3               	movwf	?___fladd+3
  5232     0E8D  3000               	movlw	0
  5233     0E8E  00A2               	movwf	?___fladd+2
  5234     0E8F  3000               	movlw	0
  5235     0E90  00A1               	movwf	?___fladd+1
  5236     0E91  3000               	movlw	0
  5237     0E92  00A0               	movwf	?___fladd
  5238     0E93  2FFF               	goto	l709
  5239     0E94                     l2917:
  5240     0E94  1283               	bcf	3,5	;RP0=0, select bank0
  5241     0E95  1303               	bcf	3,6	;RP1=0, select bank0
  5242     0E96  0824               	movf	___fladd@a,w
  5243     0E97  07A0               	addwf	___fladd@b,f
  5244     0E98  0825               	movf	___fladd@a+1,w
  5245     0E99  1103               	clrz
  5246     0E9A  1803               	skipnc
  5247     0E9B  3E01               	addlw	1
  5248     0E9C  1903               	skipnz
  5249     0E9D  2E9F               	goto	u3611
  5250     0E9E  07A1               	addwf	___fladd@b+1,f
  5251     0E9F                     u3611:
  5252     0E9F  0826               	movf	___fladd@a+2,w
  5253     0EA0  1103               	clrz
  5254     0EA1  1803               	skipnc
  5255     0EA2  3E01               	addlw	1
  5256     0EA3  1903               	skipnz
  5257     0EA4  2EA6               	goto	u3612
  5258     0EA5  07A2               	addwf	___fladd@b+2,f
  5259     0EA6                     u3612:
  5260     0EA6  0827               	movf	___fladd@a+3,w
  5261     0EA7  1103               	clrz
  5262     0EA8  1803               	skipnc
  5263     0EA9  3E01               	addlw	1
  5264     0EAA  1903               	skipnz
  5265     0EAB  2EAD               	goto	u3613
  5266     0EAC  07A3               	addwf	___fladd@b+3,f
  5267     0EAD                     u3613:
  5268     0EAD                     l2919:
  5269     0EAD  1C23               	btfss	___fladd@b+3,0
  5270     0EAE  2EB0               	goto	u3621
  5271     0EAF  2EB1               	goto	u3620
  5272     0EB0                     u3621:
  5273     0EB0  2F87               	goto	l2971
  5274     0EB1                     u3620:
  5275     0EB1                     l2921:
  5276     0EB1  1C75               	btfss	___fladd@grs,0
  5277     0EB2  2EB4               	goto	u3631
  5278     0EB3  2EB5               	goto	u3630
  5279     0EB4                     u3631:
  5280     0EB4  2EBC               	goto	l2925
  5281     0EB5                     u3630:
  5282     0EB5                     l2923:
  5283     0EB5  0875               	movf	___fladd@grs,w
  5284     0EB6  00A8               	movwf	??___fladd
  5285     0EB7  1003               	clrc
  5286     0EB8  0C28               	rrf	??___fladd,w
  5287     0EB9  3801               	iorlw	1
  5288     0EBA  00F5               	movwf	___fladd@grs
  5289     0EBB  2EBE               	goto	l2927
  5290     0EBC                     l2925:
  5291     0EBC  1003               	clrc
  5292     0EBD  0CF5               	rrf	___fladd@grs,f
  5293     0EBE                     l2927:
  5294     0EBE  1C20               	btfss	___fladd@b,0
  5295     0EBF  2EC1               	goto	u3641
  5296     0EC0  2EC2               	goto	u3640
  5297     0EC1                     u3641:
  5298     0EC1  2EC3               	goto	l2931
  5299     0EC2                     u3640:
  5300     0EC2                     l2929:
  5301     0EC2  17F5               	bsf	___fladd@grs,7
  5302     0EC3                     l2931:
  5303     0EC3  3001               	movlw	1
  5304     0EC4  00A8               	movwf	??___fladd
  5305     0EC5                     u3655:
  5306     0EC5  0D23               	rlf	___fladd@b+3,w
  5307     0EC6  0CA3               	rrf	___fladd@b+3,f
  5308     0EC7  0CA2               	rrf	___fladd@b+2,f
  5309     0EC8  0CA1               	rrf	___fladd@b+1,f
  5310     0EC9  0CA0               	rrf	___fladd@b,f
  5311     0ECA  0BA8               	decfsz	??___fladd& (0+127),f
  5312     0ECB  2EC5               	goto	u3655
  5313     0ECC                     l2933:
  5314     0ECC  3001               	movlw	1
  5315     0ECD  00FF               	movwf	btemp+1
  5316     0ECE  087F               	movf	btemp+1,w
  5317     0ECF  07F4               	addwf	___fladd@bexp,f
  5318     0ED0  2F87               	goto	l2971
  5319     0ED1                     l2935:
  5320     0ED1  1283               	bcf	3,5	;RP0=0, select bank0
  5321     0ED2  1303               	bcf	3,6	;RP1=0, select bank0
  5322     0ED3  0823               	movf	___fladd@b+3,w
  5323     0ED4  3A80               	xorlw	128
  5324     0ED5  00FF               	movwf	btemp+1
  5325     0ED6  0827               	movf	___fladd@a+3,w
  5326     0ED7  3A80               	xorlw	128
  5327     0ED8  027F               	subwf	btemp+1,w
  5328     0ED9  1D03               	skipz
  5329     0EDA  2EE5               	goto	u3663
  5330     0EDB  0826               	movf	___fladd@a+2,w
  5331     0EDC  0222               	subwf	___fladd@b+2,w
  5332     0EDD  1D03               	skipz
  5333     0EDE  2EE5               	goto	u3663
  5334     0EDF  0825               	movf	___fladd@a+1,w
  5335     0EE0  0221               	subwf	___fladd@b+1,w
  5336     0EE1  1D03               	skipz
  5337     0EE2  2EE5               	goto	u3663
  5338     0EE3  0824               	movf	___fladd@a,w
  5339     0EE4  0220               	subwf	___fladd@b,w
  5340     0EE5                     u3663:
  5341     0EE5  1803               	skipnc
  5342     0EE6  2EE8               	goto	u3661
  5343     0EE7  2EE9               	goto	u3660
  5344     0EE8                     u3661:
  5345     0EE8  2F41               	goto	l2947
  5346     0EE9                     u3660:
  5347     0EE9                     l2937:
  5348     0EE9  30FF               	movlw	255
  5349     0EEA  00A8               	movwf	??___fladd
  5350     0EEB  30FF               	movlw	255
  5351     0EEC  00A9               	movwf	??___fladd+1
  5352     0EED  30FF               	movlw	255
  5353     0EEE  00AA               	movwf	??___fladd+2
  5354     0EEF  30FF               	movlw	255
  5355     0EF0  00AB               	movwf	??___fladd+3
  5356     0EF1  0824               	movf	___fladd@a,w
  5357     0EF2  00AC               	movwf	??___fladd+4
  5358     0EF3  0825               	movf	___fladd@a+1,w
  5359     0EF4  00AD               	movwf	??___fladd+5
  5360     0EF5  0826               	movf	___fladd@a+2,w
  5361     0EF6  00AE               	movwf	??___fladd+6
  5362     0EF7  0827               	movf	___fladd@a+3,w
  5363     0EF8  00AF               	movwf	??___fladd+7
  5364     0EF9  0820               	movf	___fladd@b,w
  5365     0EFA  02AC               	subwf	??___fladd+4,f
  5366     0EFB  0821               	movf	___fladd@b+1,w
  5367     0EFC  1C03               	skipc
  5368     0EFD  0F21               	incfsz	___fladd@b+1,w
  5369     0EFE  2F00               	goto	u3671
  5370     0EFF  2F01               	goto	u3672
  5371     0F00                     u3671:
  5372     0F00  02AD               	subwf	??___fladd+5,f
  5373     0F01                     u3672:
  5374     0F01  0822               	movf	___fladd@b+2,w
  5375     0F02  1C03               	skipc
  5376     0F03  0F22               	incfsz	___fladd@b+2,w
  5377     0F04  2F06               	goto	u3673
  5378     0F05  2F07               	goto	u3674
  5379     0F06                     u3673:
  5380     0F06  02AE               	subwf	??___fladd+6,f
  5381     0F07                     u3674:
  5382     0F07  0823               	movf	___fladd@b+3,w
  5383     0F08  1C03               	skipc
  5384     0F09  0F23               	incfsz	___fladd@b+3,w
  5385     0F0A  2F0C               	goto	u3675
  5386     0F0B  2F0D               	goto	u3676
  5387     0F0C                     u3675:
  5388     0F0C  02AF               	subwf	??___fladd+7,f
  5389     0F0D                     u3676:
  5390     0F0D  082C               	movf	??___fladd+4,w
  5391     0F0E  07A8               	addwf	??___fladd,f
  5392     0F0F  082D               	movf	??___fladd+5,w
  5393     0F10  1803               	skipnc
  5394     0F11  0F2D               	incfsz	??___fladd+5,w
  5395     0F12  2F14               	goto	u3680
  5396     0F13  2F15               	goto	u3681
  5397     0F14                     u3680:
  5398     0F14  07A9               	addwf	??___fladd+1,f
  5399     0F15                     u3681:
  5400     0F15  082E               	movf	??___fladd+6,w
  5401     0F16  1803               	skipnc
  5402     0F17  0F2E               	incfsz	??___fladd+6,w
  5403     0F18  2F1A               	goto	u3682
  5404     0F19  2F1B               	goto	u3683
  5405     0F1A                     u3682:
  5406     0F1A  07AA               	addwf	??___fladd+2,f
  5407     0F1B                     u3683:
  5408     0F1B  082F               	movf	??___fladd+7,w
  5409     0F1C  1803               	skipnc
  5410     0F1D  0A2F               	incf	??___fladd+7,w
  5411     0F1E  07AB               	addwf	??___fladd+3,f
  5412     0F1F  082B               	movf	??___fladd+3,w
  5413     0F20  00A3               	movwf	___fladd@b+3
  5414     0F21  082A               	movf	??___fladd+2,w
  5415     0F22  00A2               	movwf	___fladd@b+2
  5416     0F23  0829               	movf	??___fladd+1,w
  5417     0F24  00A1               	movwf	___fladd@b+1
  5418     0F25  0828               	movf	??___fladd,w
  5419     0F26  00A0               	movwf	___fladd@b
  5420     0F27                     l2939:
  5421     0F27  3080               	movlw	128
  5422     0F28  00FF               	movwf	btemp+1
  5423     0F29  087F               	movf	btemp+1,w
  5424     0F2A  06F2               	xorwf	___fladd@signs,f
  5425     0F2B                     l2941:
  5426     0F2B  09F5               	comf	___fladd@grs,f
  5427     0F2C  0AF5               	incf	___fladd@grs,f
  5428     0F2D                     l2943:
  5429     0F2D  0875               	movf	___fladd@grs,w
  5430     0F2E  1D03               	btfss	3,2
  5431     0F2F  2F31               	goto	u3691
  5432     0F30  2F32               	goto	u3690
  5433     0F31                     u3691:
  5434     0F31  2F4F               	goto	l717
  5435     0F32                     u3690:
  5436     0F32                     l2945:
  5437     0F32  3001               	movlw	1
  5438     0F33  07A0               	addwf	___fladd@b,f
  5439     0F34  3000               	movlw	0
  5440     0F35  1803               	skipnc
  5441     0F36  3001               	movlw	1
  5442     0F37  07A1               	addwf	___fladd@b+1,f
  5443     0F38  3000               	movlw	0
  5444     0F39  1803               	skipnc
  5445     0F3A  3001               	movlw	1
  5446     0F3B  07A2               	addwf	___fladd@b+2,f
  5447     0F3C  3000               	movlw	0
  5448     0F3D  1803               	skipnc
  5449     0F3E  3001               	movlw	1
  5450     0F3F  07A3               	addwf	___fladd@b+3,f
  5451     0F40  2F4F               	goto	l717
  5452     0F41                     l2947:
  5453     0F41  0824               	movf	___fladd@a,w
  5454     0F42  02A0               	subwf	___fladd@b,f
  5455     0F43  0825               	movf	___fladd@a+1,w
  5456     0F44  1C03               	skipc
  5457     0F45  0F25               	incfsz	___fladd@a+1,w
  5458     0F46  02A1               	subwf	___fladd@b+1,f
  5459     0F47  0826               	movf	___fladd@a+2,w
  5460     0F48  1C03               	skipc
  5461     0F49  0F26               	incfsz	___fladd@a+2,w
  5462     0F4A  02A2               	subwf	___fladd@b+2,f
  5463     0F4B  0827               	movf	___fladd@a+3,w
  5464     0F4C  1C03               	skipc
  5465     0F4D  0F27               	incfsz	___fladd@a+3,w
  5466     0F4E  02A3               	subwf	___fladd@b+3,f
  5467     0F4F                     l717:
  5468     0F4F  0823               	movf	___fladd@b+3,w
  5469     0F50  0422               	iorwf	___fladd@b+2,w
  5470     0F51  0421               	iorwf	___fladd@b+1,w
  5471     0F52  0420               	iorwf	___fladd@b,w
  5472     0F53  1D03               	skipz
  5473     0F54  2F56               	goto	u3701
  5474     0F55  2F57               	goto	u3700
  5475     0F56                     u3701:
  5476     0F56  2F83               	goto	l2969
  5477     0F57                     u3700:
  5478     0F57                     l2949:
  5479     0F57  0875               	movf	___fladd@grs,w
  5480     0F58  1D03               	btfss	3,2
  5481     0F59  2F5B               	goto	u3711
  5482     0F5A  2F5C               	goto	u3710
  5483     0F5B                     u3711:
  5484     0F5B  2F83               	goto	l2969
  5485     0F5C                     u3710:
  5486     0F5C                     l2951:
  5487     0F5C  3000               	movlw	0
  5488     0F5D  00A3               	movwf	?___fladd+3
  5489     0F5E  3000               	movlw	0
  5490     0F5F  00A2               	movwf	?___fladd+2
  5491     0F60  3000               	movlw	0
  5492     0F61  00A1               	movwf	?___fladd+1
  5493     0F62  3000               	movlw	0
  5494     0F63  00A0               	movwf	?___fladd
  5495     0F64  2FFF               	goto	l709
  5496     0F65                     l2955:
  5497     0F65  3001               	movlw	1
  5498     0F66  00A8               	movwf	??___fladd
  5499     0F67                     u3725:
  5500     0F67  1003               	clrc
  5501     0F68  0DA0               	rlf	___fladd@b,f
  5502     0F69  0DA1               	rlf	___fladd@b+1,f
  5503     0F6A  0DA2               	rlf	___fladd@b+2,f
  5504     0F6B  0DA3               	rlf	___fladd@b+3,f
  5505     0F6C  0BA8               	decfsz	??___fladd,f
  5506     0F6D  2F67               	goto	u3725
  5507     0F6E                     l2957:
  5508     0F6E  1FF5               	btfss	___fladd@grs,7
  5509     0F6F  2F71               	goto	u3731
  5510     0F70  2F72               	goto	u3730
  5511     0F71                     u3731:
  5512     0F71  2F73               	goto	l721
  5513     0F72                     u3730:
  5514     0F72                     l2959:
  5515     0F72  1420               	bsf	___fladd@b,0
  5516     0F73                     l721:
  5517     0F73  1C75               	btfss	___fladd@grs,0
  5518     0F74  2F76               	goto	u3741
  5519     0F75  2F77               	goto	u3740
  5520     0F76                     u3741:
  5521     0F76  2F7A               	goto	l2963
  5522     0F77                     u3740:
  5523     0F77                     l2961:
  5524     0F77  1403               	setc
  5525     0F78  0DF5               	rlf	___fladd@grs,f
  5526     0F79  2F7C               	goto	l2965
  5527     0F7A                     l2963:
  5528     0F7A  1003               	clrc
  5529     0F7B  0DF5               	rlf	___fladd@grs,f
  5530     0F7C                     l2965:
  5531     0F7C  0874               	movf	___fladd@bexp,w
  5532     0F7D  1903               	btfsc	3,2
  5533     0F7E  2F80               	goto	u3751
  5534     0F7F  2F81               	goto	u3750
  5535     0F80                     u3751:
  5536     0F80  2F83               	goto	l2969
  5537     0F81                     u3750:
  5538     0F81                     l2967:
  5539     0F81  3001               	movlw	1
  5540     0F82  02F4               	subwf	___fladd@bexp,f
  5541     0F83                     l2969:
  5542     0F83  1FA2               	btfss	___fladd@b+2,7
  5543     0F84  2F86               	goto	u3761
  5544     0F85  2F87               	goto	u3760
  5545     0F86                     u3761:
  5546     0F86  2F65               	goto	l2955
  5547     0F87                     u3760:
  5548     0F87                     l2971:
  5549     0F87  01F3               	clrf	___fladd@aexp
  5550     0F88                     l2973:
  5551     0F88  1FF5               	btfss	___fladd@grs,7
  5552     0F89  2F8B               	goto	u3771
  5553     0F8A  2F8C               	goto	u3770
  5554     0F8B                     u3771:
  5555     0F8B  2F9A               	goto	l2981
  5556     0F8C                     u3770:
  5557     0F8C                     l2975:
  5558     0F8C  0875               	movf	___fladd@grs,w
  5559     0F8D  397F               	andlw	127
  5560     0F8E  1903               	btfsc	3,2
  5561     0F8F  2F91               	goto	u3781
  5562     0F90  2F92               	goto	u3780
  5563     0F91                     u3781:
  5564     0F91  2F95               	goto	l727
  5565     0F92                     u3780:
  5566     0F92                     l2977:
  5567     0F92  01F3               	clrf	___fladd@aexp
  5568     0F93  0AF3               	incf	___fladd@aexp,f
  5569     0F94  2F9A               	goto	l2981
  5570     0F95                     l727:
  5571     0F95  1C20               	btfss	___fladd@b,0
  5572     0F96  2F98               	goto	u3791
  5573     0F97  2F99               	goto	u3790
  5574     0F98                     u3791:
  5575     0F98  2F9A               	goto	l2981
  5576     0F99                     u3790:
  5577     0F99  2F92               	goto	l2977
  5578     0F9A                     l2981:
  5579     0F9A  0873               	movf	___fladd@aexp,w
  5580     0F9B  1903               	btfsc	3,2
  5581     0F9C  2F9E               	goto	u3801
  5582     0F9D  2F9F               	goto	u3800
  5583     0F9E                     u3801:
  5584     0F9E  2FD3               	goto	l2991
  5585     0F9F                     u3800:
  5586     0F9F                     l2983:
  5587     0F9F  3001               	movlw	1
  5588     0FA0  07A0               	addwf	___fladd@b,f
  5589     0FA1  3000               	movlw	0
  5590     0FA2  1803               	skipnc
  5591     0FA3  3001               	movlw	1
  5592     0FA4  07A1               	addwf	___fladd@b+1,f
  5593     0FA5  3000               	movlw	0
  5594     0FA6  1803               	skipnc
  5595     0FA7  3001               	movlw	1
  5596     0FA8  07A2               	addwf	___fladd@b+2,f
  5597     0FA9  3000               	movlw	0
  5598     0FAA  1803               	skipnc
  5599     0FAB  3001               	movlw	1
  5600     0FAC  07A3               	addwf	___fladd@b+3,f
  5601     0FAD                     l2985:
  5602     0FAD  1C23               	btfss	___fladd@b+3,0
  5603     0FAE  2FB0               	goto	u3811
  5604     0FAF  2FB1               	goto	u3810
  5605     0FB0                     u3811:
  5606     0FB0  2FD3               	goto	l2991
  5607     0FB1                     u3810:
  5608     0FB1                     l2987:
  5609     0FB1  0820               	movf	___fladd@b,w
  5610     0FB2  00A8               	movwf	??___fladd
  5611     0FB3  0821               	movf	___fladd@b+1,w
  5612     0FB4  00A9               	movwf	??___fladd+1
  5613     0FB5  0822               	movf	___fladd@b+2,w
  5614     0FB6  00AA               	movwf	??___fladd+2
  5615     0FB7  0823               	movf	___fladd@b+3,w
  5616     0FB8  00AB               	movwf	??___fladd+3
  5617     0FB9  3001               	movlw	1
  5618     0FBA  00AC               	movwf	??___fladd+4
  5619     0FBB                     u3825:
  5620     0FBB  0D2B               	rlf	??___fladd+3,w
  5621     0FBC  0CAB               	rrf	??___fladd+3,f
  5622     0FBD  0CAA               	rrf	??___fladd+2,f
  5623     0FBE  0CA9               	rrf	??___fladd+1,f
  5624     0FBF  0CA8               	rrf	??___fladd,f
  5625     0FC0                     u3820:
  5626     0FC0  0BAC               	decfsz	??___fladd+4,f
  5627     0FC1  2FBB               	goto	u3825
  5628     0FC2  082B               	movf	??___fladd+3,w
  5629     0FC3  00A3               	movwf	___fladd@b+3
  5630     0FC4  082A               	movf	??___fladd+2,w
  5631     0FC5  00A2               	movwf	___fladd@b+2
  5632     0FC6  0829               	movf	??___fladd+1,w
  5633     0FC7  00A1               	movwf	___fladd@b+1
  5634     0FC8  0828               	movf	??___fladd,w
  5635     0FC9  00A0               	movwf	___fladd@b
  5636     0FCA  0A74               	incf	___fladd@bexp,w
  5637     0FCB  1903               	btfsc	3,2
  5638     0FCC  2FCE               	goto	u3831
  5639     0FCD  2FCF               	goto	u3830
  5640     0FCE                     u3831:
  5641     0FCE  2FD3               	goto	l2991
  5642     0FCF                     u3830:
  5643     0FCF                     l2989:
  5644     0FCF  3001               	movlw	1
  5645     0FD0  00FF               	movwf	btemp+1
  5646     0FD1  087F               	movf	btemp+1,w
  5647     0FD2  07F4               	addwf	___fladd@bexp,f
  5648     0FD3                     l2991:
  5649     0FD3  0A74               	incf	___fladd@bexp,w
  5650     0FD4  1903               	btfsc	3,2
  5651     0FD5  2FD7               	goto	u3841
  5652     0FD6  2FD8               	goto	u3840
  5653     0FD7                     u3841:
  5654     0FD7  2FDD               	goto	l2995
  5655     0FD8                     u3840:
  5656     0FD8                     l2993:
  5657     0FD8  0874               	movf	___fladd@bexp,w
  5658     0FD9  1D03               	btfss	3,2
  5659     0FDA  2FDC               	goto	u3851
  5660     0FDB  2FDD               	goto	u3850
  5661     0FDC                     u3851:
  5662     0FDC  2FEB               	goto	l3001
  5663     0FDD                     u3850:
  5664     0FDD                     l2995:
  5665     0FDD  3000               	movlw	0
  5666     0FDE  00A3               	movwf	___fladd@b+3
  5667     0FDF  3000               	movlw	0
  5668     0FE0  00A2               	movwf	___fladd@b+2
  5669     0FE1  3000               	movlw	0
  5670     0FE2  00A1               	movwf	___fladd@b+1
  5671     0FE3  3000               	movlw	0
  5672     0FE4  00A0               	movwf	___fladd@b
  5673     0FE5                     l2997:
  5674     0FE5  0874               	movf	___fladd@bexp,w
  5675     0FE6  1D03               	btfss	3,2
  5676     0FE7  2FE9               	goto	u3861
  5677     0FE8  2FEA               	goto	u3860
  5678     0FE9                     u3861:
  5679     0FE9  2FEB               	goto	l3001
  5680     0FEA                     u3860:
  5681     0FEA                     l2999:
  5682     0FEA  01F2               	clrf	___fladd@signs
  5683     0FEB                     l3001:
  5684     0FEB  1C74               	btfss	___fladd@bexp,0
  5685     0FEC  2FEE               	goto	u3871
  5686     0FED  2FEF               	goto	u3870
  5687     0FEE                     u3871:
  5688     0FEE  2FF1               	goto	l3005
  5689     0FEF                     u3870:
  5690     0FEF                     l3003:
  5691     0FEF  17A2               	bsf	___fladd@b+2,7
  5692     0FF0  2FF5               	goto	l3007
  5693     0FF1                     l3005:
  5694     0FF1  307F               	movlw	127
  5695     0FF2  00FF               	movwf	btemp+1
  5696     0FF3  087F               	movf	btemp+1,w
  5697     0FF4  05A2               	andwf	___fladd@b+2,f
  5698     0FF5                     l3007:
  5699     0FF5  0874               	movf	___fladd@bexp,w
  5700     0FF6  00A8               	movwf	??___fladd
  5701     0FF7  1003               	clrc
  5702     0FF8  0C28               	rrf	??___fladd,w
  5703     0FF9  00A3               	movwf	___fladd@b+3
  5704     0FFA                     l3009:
  5705     0FFA  1FF2               	btfss	___fladd@signs,7
  5706     0FFB  2FFD               	goto	u3881
  5707     0FFC  2FFE               	goto	u3880
  5708     0FFD                     u3881:
  5709     0FFD  2FFF               	goto	l739
  5710     0FFE                     u3880:
  5711     0FFE                     l3011:
  5712     0FFE  17A3               	bsf	___fladd@b+3,7
  5713     0FFF                     l739:
  5714     0FFF                     l709:
  5715     0FFF  0008               	return
  5716     1000                     __end_of___fladd:
  5717                           
  5718                           	psect	text12
  5719     03E3                     __ptext12:	
  5720 ;; *************** function ___flmul *****************
  5721 ;; Defined at:
  5722 ;;		line 8 in file "C:\Program Files\Microchip\xc8\v2.46\pic\sources\c99\common\sprcmul.c"
  5723 ;; Parameters:    Size  Location     Type
  5724 ;;  b               4   10[BANK0 ] unsigned char 
  5725 ;;  a               4   14[BANK0 ] unsigned char 
  5726 ;; Auto vars:     Size  Location     Type
  5727 ;;  prod            4   30[BANK0 ] struct .
  5728 ;;  grs             4   25[BANK0 ] unsigned long 
  5729 ;;  temp            2   34[BANK0 ] struct .
  5730 ;;  bexp            1   29[BANK0 ] unsigned char 
  5731 ;;  aexp            1   24[BANK0 ] unsigned char 
  5732 ;;  sign            1   23[BANK0 ] unsigned char 
  5733 ;; Return value:  Size  Location     Type
  5734 ;;                  4   10[BANK0 ] unsigned char 
  5735 ;; Registers used:
  5736 ;;		wreg, status,2, status,0, btemp+1, pclath, cstack
  5737 ;; Tracked objects:
  5738 ;;		On entry : 0/0
  5739 ;;		On exit  : 0/0
  5740 ;;		Unchanged: 0/0
  5741 ;; Data sizes:     COMMON   BANK0   BANK1   BANK3   BANK2
  5742 ;;      Params:         0       8       0       0       0
  5743 ;;      Locals:         0      13       0       0       0
  5744 ;;      Temps:          0       5       0       0       0
  5745 ;;      Totals:         0      26       0       0       0
  5746 ;;Total ram usage:       26 bytes
  5747 ;; Hardware stack levels used: 1
  5748 ;; Hardware stack levels required when called: 2
  5749 ;; This function calls:
  5750 ;;		__Umul8_16
  5751 ;; This function is called by:
  5752 ;;		_run_program
  5753 ;; This function uses a non-reentrant model
  5754 ;;
  5755                           
  5756     03E3                     ___flmul:	
  5757                           ;psect for function ___flmul
  5758                           
  5759     03E3                     l3231:	
  5760                           ;incstack = 0
  5761                           ; Regs used in ___flmul: [wreg+status,2+status,0+btemp+1+pclath+cstack]
  5762                           
  5763     03E3  1283               	bcf	3,5	;RP0=0, select bank0
  5764     03E4  1303               	bcf	3,6	;RP1=0, select bank0
  5765     03E5  082D               	movf	___flmul@b+3,w
  5766     03E6  3980               	andlw	128
  5767     03E7  00B7               	movwf	___flmul@sign
  5768     03E8                     l3233:
  5769     03E8  082D               	movf	___flmul@b+3,w
  5770     03E9  00B2               	movwf	??___flmul
  5771     03EA  0732               	addwf	??___flmul,w
  5772     03EB  00BD               	movwf	___flmul@bexp
  5773     03EC                     l3235:
  5774     03EC  1FAC               	btfss	___flmul@b+2,7
  5775     03ED  2BEF               	goto	u4341
  5776     03EE  2BF0               	goto	u4340
  5777     03EF                     u4341:
  5778     03EF  2BF1               	goto	l3239
  5779     03F0                     u4340:
  5780     03F0                     l3237:
  5781     03F0  143D               	bsf	___flmul@bexp,0
  5782     03F1                     l3239:
  5783     03F1  083D               	movf	___flmul@bexp,w
  5784     03F2  1903               	btfsc	3,2
  5785     03F3  2BF5               	goto	u4351
  5786     03F4  2BF6               	goto	u4350
  5787     03F5                     u4351:
  5788     03F5  2C05               	goto	l3247
  5789     03F6                     u4350:
  5790     03F6                     l3241:
  5791     03F6  0A3D               	incf	___flmul@bexp,w
  5792     03F7  1D03               	btfss	3,2
  5793     03F8  2BFA               	goto	u4361
  5794     03F9  2BFB               	goto	u4360
  5795     03FA                     u4361:
  5796     03FA  2C03               	goto	l3245
  5797     03FB                     u4360:
  5798     03FB                     l3243:
  5799     03FB  3000               	movlw	0
  5800     03FC  00AD               	movwf	___flmul@b+3
  5801     03FD  3000               	movlw	0
  5802     03FE  00AC               	movwf	___flmul@b+2
  5803     03FF  3000               	movlw	0
  5804     0400  00AB               	movwf	___flmul@b+1
  5805     0401  3000               	movlw	0
  5806     0402  00AA               	movwf	___flmul@b
  5807     0403                     l3245:
  5808     0403  17AC               	bsf	___flmul@b+2,7
  5809     0404  2C0D               	goto	l3249
  5810     0405                     l3247:
  5811     0405  3000               	movlw	0
  5812     0406  00AD               	movwf	___flmul@b+3
  5813     0407  3000               	movlw	0
  5814     0408  00AC               	movwf	___flmul@b+2
  5815     0409  3000               	movlw	0
  5816     040A  00AB               	movwf	___flmul@b+1
  5817     040B  3000               	movlw	0
  5818     040C  00AA               	movwf	___flmul@b
  5819     040D                     l3249:
  5820     040D  0831               	movf	___flmul@a+3,w
  5821     040E  3980               	andlw	128
  5822     040F  00FF               	movwf	btemp+1
  5823     0410  087F               	movf	btemp+1,w
  5824     0411  06B7               	xorwf	___flmul@sign,f
  5825     0412                     l3251:
  5826     0412  0831               	movf	___flmul@a+3,w
  5827     0413  00B2               	movwf	??___flmul
  5828     0414  0732               	addwf	??___flmul,w
  5829     0415  00B8               	movwf	___flmul@aexp
  5830     0416                     l3253:
  5831     0416  1FB0               	btfss	___flmul@a+2,7
  5832     0417  2C19               	goto	u4371
  5833     0418  2C1A               	goto	u4370
  5834     0419                     u4371:
  5835     0419  2C1B               	goto	l3257
  5836     041A                     u4370:
  5837     041A                     l3255:
  5838     041A  1438               	bsf	___flmul@aexp,0
  5839     041B                     l3257:
  5840     041B  0838               	movf	___flmul@aexp,w
  5841     041C  1903               	btfsc	3,2
  5842     041D  2C1F               	goto	u4381
  5843     041E  2C20               	goto	u4380
  5844     041F                     u4381:
  5845     041F  2C2F               	goto	l3265
  5846     0420                     u4380:
  5847     0420                     l3259:
  5848     0420  0A38               	incf	___flmul@aexp,w
  5849     0421  1D03               	btfss	3,2
  5850     0422  2C24               	goto	u4391
  5851     0423  2C25               	goto	u4390
  5852     0424                     u4391:
  5853     0424  2C2D               	goto	l3263
  5854     0425                     u4390:
  5855     0425                     l3261:
  5856     0425  3000               	movlw	0
  5857     0426  00B1               	movwf	___flmul@a+3
  5858     0427  3000               	movlw	0
  5859     0428  00B0               	movwf	___flmul@a+2
  5860     0429  3000               	movlw	0
  5861     042A  00AF               	movwf	___flmul@a+1
  5862     042B  3000               	movlw	0
  5863     042C  00AE               	movwf	___flmul@a
  5864     042D                     l3263:
  5865     042D  17B0               	bsf	___flmul@a+2,7
  5866     042E  2C37               	goto	l3267
  5867     042F                     l3265:
  5868     042F  3000               	movlw	0
  5869     0430  00B1               	movwf	___flmul@a+3
  5870     0431  3000               	movlw	0
  5871     0432  00B0               	movwf	___flmul@a+2
  5872     0433  3000               	movlw	0
  5873     0434  00AF               	movwf	___flmul@a+1
  5874     0435  3000               	movlw	0
  5875     0436  00AE               	movwf	___flmul@a
  5876     0437                     l3267:
  5877     0437  0838               	movf	___flmul@aexp,w
  5878     0438  1903               	btfsc	3,2
  5879     0439  2C3B               	goto	u4401
  5880     043A  2C3C               	goto	u4400
  5881     043B                     u4401:
  5882     043B  2C41               	goto	l3271
  5883     043C                     u4400:
  5884     043C                     l3269:
  5885     043C  083D               	movf	___flmul@bexp,w
  5886     043D  1D03               	btfss	3,2
  5887     043E  2C40               	goto	u4411
  5888     043F  2C41               	goto	u4410
  5889     0440                     u4411:
  5890     0440  2C4A               	goto	l3275
  5891     0441                     u4410:
  5892     0441                     l3271:
  5893     0441  3000               	movlw	0
  5894     0442  00AD               	movwf	?___flmul+3
  5895     0443  3000               	movlw	0
  5896     0444  00AC               	movwf	?___flmul+2
  5897     0445  3000               	movlw	0
  5898     0446  00AB               	movwf	?___flmul+1
  5899     0447  3000               	movlw	0
  5900     0448  00AA               	movwf	?___flmul
  5901     0449  2F27               	goto	l792
  5902     044A                     l3275:
  5903     044A  082A               	movf	___flmul@b,w
  5904     044B  00F2               	movwf	__Umul8_16@multiplicand
  5905     044C  0830               	movf	___flmul@a+2,w
  5906     044D  160A  118A  25C9  120A  118A  	fcall	__Umul8_16
  5907     0452  0873               	movf	?__Umul8_16+1,w
  5908     0453  1283               	bcf	3,5	;RP0=0, select bank0
  5909     0454  1303               	bcf	3,6	;RP1=0, select bank0
  5910     0455  00C3               	movwf	___flmul@temp+1
  5911     0456  0872               	movf	?__Umul8_16,w
  5912     0457  00C2               	movwf	___flmul@temp
  5913     0458                     l3277:
  5914     0458  0842               	movf	___flmul@temp,w
  5915     0459  00B2               	movwf	??___flmul
  5916     045A  01B3               	clrf	??___flmul+1
  5917     045B  01B4               	clrf	??___flmul+2
  5918     045C  01B5               	clrf	??___flmul+3
  5919     045D  0835               	movf	??___flmul+3,w
  5920     045E  00BC               	movwf	___flmul@grs+3
  5921     045F  0834               	movf	??___flmul+2,w
  5922     0460  00BB               	movwf	___flmul@grs+2
  5923     0461  0833               	movf	??___flmul+1,w
  5924     0462  00BA               	movwf	___flmul@grs+1
  5925     0463  0832               	movf	??___flmul,w
  5926     0464  00B9               	movwf	___flmul@grs
  5927     0465                     l3279:
  5928     0465  0843               	movf	___flmul@temp+1,w
  5929     0466  00B2               	movwf	??___flmul
  5930     0467  01B3               	clrf	??___flmul+1
  5931     0468  01B4               	clrf	??___flmul+2
  5932     0469  01B5               	clrf	??___flmul+3
  5933     046A  0835               	movf	??___flmul+3,w
  5934     046B  00C1               	movwf	___flmul@prod+3
  5935     046C  0834               	movf	??___flmul+2,w
  5936     046D  00C0               	movwf	___flmul@prod+2
  5937     046E  0833               	movf	??___flmul+1,w
  5938     046F  00BF               	movwf	___flmul@prod+1
  5939     0470  0832               	movf	??___flmul,w
  5940     0471  00BE               	movwf	___flmul@prod
  5941     0472  082B               	movf	___flmul@b+1,w
  5942     0473  00F2               	movwf	__Umul8_16@multiplicand
  5943     0474  082F               	movf	___flmul@a+1,w
  5944     0475  160A  118A  25C9  120A  118A  	fcall	__Umul8_16
  5945     047A  0873               	movf	?__Umul8_16+1,w
  5946     047B  1283               	bcf	3,5	;RP0=0, select bank0
  5947     047C  1303               	bcf	3,6	;RP1=0, select bank0
  5948     047D  00C3               	movwf	___flmul@temp+1
  5949     047E  0872               	movf	?__Umul8_16,w
  5950     047F  00C2               	movwf	___flmul@temp
  5951     0480                     l3281:
  5952     0480  0842               	movf	___flmul@temp,w
  5953     0481  00B2               	movwf	??___flmul
  5954     0482  01B3               	clrf	??___flmul+1
  5955     0483  01B4               	clrf	??___flmul+2
  5956     0484  01B5               	clrf	??___flmul+3
  5957     0485  0832               	movf	??___flmul,w
  5958     0486  07B9               	addwf	___flmul@grs,f
  5959     0487  0833               	movf	??___flmul+1,w
  5960     0488  1103               	clrz
  5961     0489  1803               	skipnc
  5962     048A  3E01               	addlw	1
  5963     048B  1903               	skipnz
  5964     048C  2C8E               	goto	u4421
  5965     048D  07BA               	addwf	___flmul@grs+1,f
  5966     048E                     u4421:
  5967     048E  0834               	movf	??___flmul+2,w
  5968     048F  1103               	clrz
  5969     0490  1803               	skipnc
  5970     0491  3E01               	addlw	1
  5971     0492  1903               	skipnz
  5972     0493  2C95               	goto	u4422
  5973     0494  07BB               	addwf	___flmul@grs+2,f
  5974     0495                     u4422:
  5975     0495  0835               	movf	??___flmul+3,w
  5976     0496  1103               	clrz
  5977     0497  1803               	skipnc
  5978     0498  3E01               	addlw	1
  5979     0499  1903               	skipnz
  5980     049A  2C9C               	goto	u4423
  5981     049B  07BC               	addwf	___flmul@grs+3,f
  5982     049C                     u4423:
  5983     049C                     l3283:
  5984     049C  0843               	movf	___flmul@temp+1,w
  5985     049D  00B2               	movwf	??___flmul
  5986     049E  01B3               	clrf	??___flmul+1
  5987     049F  01B4               	clrf	??___flmul+2
  5988     04A0  01B5               	clrf	??___flmul+3
  5989     04A1  0832               	movf	??___flmul,w
  5990     04A2  07BE               	addwf	___flmul@prod,f
  5991     04A3  0833               	movf	??___flmul+1,w
  5992     04A4  1103               	clrz
  5993     04A5  1803               	skipnc
  5994     04A6  3E01               	addlw	1
  5995     04A7  1903               	skipnz
  5996     04A8  2CAA               	goto	u4431
  5997     04A9  07BF               	addwf	___flmul@prod+1,f
  5998     04AA                     u4431:
  5999     04AA  0834               	movf	??___flmul+2,w
  6000     04AB  1103               	clrz
  6001     04AC  1803               	skipnc
  6002     04AD  3E01               	addlw	1
  6003     04AE  1903               	skipnz
  6004     04AF  2CB1               	goto	u4432
  6005     04B0  07C0               	addwf	___flmul@prod+2,f
  6006     04B1                     u4432:
  6007     04B1  0835               	movf	??___flmul+3,w
  6008     04B2  1103               	clrz
  6009     04B3  1803               	skipnc
  6010     04B4  3E01               	addlw	1
  6011     04B5  1903               	skipnz
  6012     04B6  2CB8               	goto	u4433
  6013     04B7  07C1               	addwf	___flmul@prod+3,f
  6014     04B8                     u4433:
  6015     04B8  082C               	movf	___flmul@b+2,w
  6016     04B9  00F2               	movwf	__Umul8_16@multiplicand
  6017     04BA  082E               	movf	___flmul@a,w
  6018     04BB  160A  118A  25C9  120A  118A  	fcall	__Umul8_16
  6019     04C0  0873               	movf	?__Umul8_16+1,w
  6020     04C1  1283               	bcf	3,5	;RP0=0, select bank0
  6021     04C2  1303               	bcf	3,6	;RP1=0, select bank0
  6022     04C3  00C3               	movwf	___flmul@temp+1
  6023     04C4  0872               	movf	?__Umul8_16,w
  6024     04C5  00C2               	movwf	___flmul@temp
  6025     04C6                     l3285:
  6026     04C6  0842               	movf	___flmul@temp,w
  6027     04C7  00B2               	movwf	??___flmul
  6028     04C8  01B3               	clrf	??___flmul+1
  6029     04C9  01B4               	clrf	??___flmul+2
  6030     04CA  01B5               	clrf	??___flmul+3
  6031     04CB  0832               	movf	??___flmul,w
  6032     04CC  07B9               	addwf	___flmul@grs,f
  6033     04CD  0833               	movf	??___flmul+1,w
  6034     04CE  1103               	clrz
  6035     04CF  1803               	skipnc
  6036     04D0  3E01               	addlw	1
  6037     04D1  1903               	skipnz
  6038     04D2  2CD4               	goto	u4441
  6039     04D3  07BA               	addwf	___flmul@grs+1,f
  6040     04D4                     u4441:
  6041     04D4  0834               	movf	??___flmul+2,w
  6042     04D5  1103               	clrz
  6043     04D6  1803               	skipnc
  6044     04D7  3E01               	addlw	1
  6045     04D8  1903               	skipnz
  6046     04D9  2CDB               	goto	u4442
  6047     04DA  07BB               	addwf	___flmul@grs+2,f
  6048     04DB                     u4442:
  6049     04DB  0835               	movf	??___flmul+3,w
  6050     04DC  1103               	clrz
  6051     04DD  1803               	skipnc
  6052     04DE  3E01               	addlw	1
  6053     04DF  1903               	skipnz
  6054     04E0  2CE2               	goto	u4443
  6055     04E1  07BC               	addwf	___flmul@grs+3,f
  6056     04E2                     u4443:
  6057     04E2                     l3287:
  6058     04E2  0843               	movf	___flmul@temp+1,w
  6059     04E3  00B2               	movwf	??___flmul
  6060     04E4  01B3               	clrf	??___flmul+1
  6061     04E5  01B4               	clrf	??___flmul+2
  6062     04E6  01B5               	clrf	??___flmul+3
  6063     04E7  0832               	movf	??___flmul,w
  6064     04E8  07BE               	addwf	___flmul@prod,f
  6065     04E9  0833               	movf	??___flmul+1,w
  6066     04EA  1103               	clrz
  6067     04EB  1803               	skipnc
  6068     04EC  3E01               	addlw	1
  6069     04ED  1903               	skipnz
  6070     04EE  2CF0               	goto	u4451
  6071     04EF  07BF               	addwf	___flmul@prod+1,f
  6072     04F0                     u4451:
  6073     04F0  0834               	movf	??___flmul+2,w
  6074     04F1  1103               	clrz
  6075     04F2  1803               	skipnc
  6076     04F3  3E01               	addlw	1
  6077     04F4  1903               	skipnz
  6078     04F5  2CF7               	goto	u4452
  6079     04F6  07C0               	addwf	___flmul@prod+2,f
  6080     04F7                     u4452:
  6081     04F7  0835               	movf	??___flmul+3,w
  6082     04F8  1103               	clrz
  6083     04F9  1803               	skipnc
  6084     04FA  3E01               	addlw	1
  6085     04FB  1903               	skipnz
  6086     04FC  2CFE               	goto	u4453
  6087     04FD  07C1               	addwf	___flmul@prod+3,f
  6088     04FE                     u4453:
  6089     04FE                     l3289:
  6090     04FE  3008               	movlw	8
  6091     04FF  00B2               	movwf	??___flmul
  6092     0500                     u4465:
  6093     0500  1003               	clrc
  6094     0501  0DB9               	rlf	___flmul@grs,f
  6095     0502  0DBA               	rlf	___flmul@grs+1,f
  6096     0503  0DBB               	rlf	___flmul@grs+2,f
  6097     0504  0DBC               	rlf	___flmul@grs+3,f
  6098     0505  0BB2               	decfsz	??___flmul,f
  6099     0506  2D00               	goto	u4465
  6100     0507                     l3291:
  6101     0507  082B               	movf	___flmul@b+1,w
  6102     0508  00F2               	movwf	__Umul8_16@multiplicand
  6103     0509  082E               	movf	___flmul@a,w
  6104     050A  160A  118A  25C9  120A  118A  	fcall	__Umul8_16
  6105     050F  0873               	movf	?__Umul8_16+1,w
  6106     0510  1283               	bcf	3,5	;RP0=0, select bank0
  6107     0511  1303               	bcf	3,6	;RP1=0, select bank0
  6108     0512  00C3               	movwf	___flmul@temp+1
  6109     0513  0872               	movf	?__Umul8_16,w
  6110     0514  00C2               	movwf	___flmul@temp
  6111     0515                     l3293:
  6112     0515  0842               	movf	___flmul@temp,w
  6113     0516  00B2               	movwf	??___flmul
  6114     0517  0843               	movf	___flmul@temp+1,w
  6115     0518  00B3               	movwf	??___flmul+1
  6116     0519  01B4               	clrf	??___flmul+2
  6117     051A  01B5               	clrf	??___flmul+3
  6118     051B  0832               	movf	??___flmul,w
  6119     051C  07B9               	addwf	___flmul@grs,f
  6120     051D  0833               	movf	??___flmul+1,w
  6121     051E  1103               	clrz
  6122     051F  1803               	skipnc
  6123     0520  3E01               	addlw	1
  6124     0521  1903               	skipnz
  6125     0522  2D24               	goto	u4471
  6126     0523  07BA               	addwf	___flmul@grs+1,f
  6127     0524                     u4471:
  6128     0524  0834               	movf	??___flmul+2,w
  6129     0525  1103               	clrz
  6130     0526  1803               	skipnc
  6131     0527  3E01               	addlw	1
  6132     0528  1903               	skipnz
  6133     0529  2D2B               	goto	u4472
  6134     052A  07BB               	addwf	___flmul@grs+2,f
  6135     052B                     u4472:
  6136     052B  0835               	movf	??___flmul+3,w
  6137     052C  1103               	clrz
  6138     052D  1803               	skipnc
  6139     052E  3E01               	addlw	1
  6140     052F  1903               	skipnz
  6141     0530  2D32               	goto	u4473
  6142     0531  07BC               	addwf	___flmul@grs+3,f
  6143     0532                     u4473:
  6144     0532                     l3295:
  6145     0532  082A               	movf	___flmul@b,w
  6146     0533  00F2               	movwf	__Umul8_16@multiplicand
  6147     0534  082F               	movf	___flmul@a+1,w
  6148     0535  160A  118A  25C9  120A  118A  	fcall	__Umul8_16
  6149     053A  0873               	movf	?__Umul8_16+1,w
  6150     053B  1283               	bcf	3,5	;RP0=0, select bank0
  6151     053C  1303               	bcf	3,6	;RP1=0, select bank0
  6152     053D  00C3               	movwf	___flmul@temp+1
  6153     053E  0872               	movf	?__Umul8_16,w
  6154     053F  00C2               	movwf	___flmul@temp
  6155     0540                     l3297:
  6156     0540  0842               	movf	___flmul@temp,w
  6157     0541  00B2               	movwf	??___flmul
  6158     0542  0843               	movf	___flmul@temp+1,w
  6159     0543  00B3               	movwf	??___flmul+1
  6160     0544  01B4               	clrf	??___flmul+2
  6161     0545  01B5               	clrf	??___flmul+3
  6162     0546  0832               	movf	??___flmul,w
  6163     0547  07B9               	addwf	___flmul@grs,f
  6164     0548  0833               	movf	??___flmul+1,w
  6165     0549  1103               	clrz
  6166     054A  1803               	skipnc
  6167     054B  3E01               	addlw	1
  6168     054C  1903               	skipnz
  6169     054D  2D4F               	goto	u4481
  6170     054E  07BA               	addwf	___flmul@grs+1,f
  6171     054F                     u4481:
  6172     054F  0834               	movf	??___flmul+2,w
  6173     0550  1103               	clrz
  6174     0551  1803               	skipnc
  6175     0552  3E01               	addlw	1
  6176     0553  1903               	skipnz
  6177     0554  2D56               	goto	u4482
  6178     0555  07BB               	addwf	___flmul@grs+2,f
  6179     0556                     u4482:
  6180     0556  0835               	movf	??___flmul+3,w
  6181     0557  1103               	clrz
  6182     0558  1803               	skipnc
  6183     0559  3E01               	addlw	1
  6184     055A  1903               	skipnz
  6185     055B  2D5D               	goto	u4483
  6186     055C  07BC               	addwf	___flmul@grs+3,f
  6187     055D                     u4483:
  6188     055D                     l3299:
  6189     055D  3008               	movlw	8
  6190     055E  00B2               	movwf	??___flmul
  6191     055F                     u4495:
  6192     055F  1003               	clrc
  6193     0560  0DB9               	rlf	___flmul@grs,f
  6194     0561  0DBA               	rlf	___flmul@grs+1,f
  6195     0562  0DBB               	rlf	___flmul@grs+2,f
  6196     0563  0DBC               	rlf	___flmul@grs+3,f
  6197     0564  0BB2               	decfsz	??___flmul,f
  6198     0565  2D5F               	goto	u4495
  6199     0566  082A               	movf	___flmul@b,w
  6200     0567  00F2               	movwf	__Umul8_16@multiplicand
  6201     0568  082E               	movf	___flmul@a,w
  6202     0569  160A  118A  25C9  120A  118A  	fcall	__Umul8_16
  6203     056E  0873               	movf	?__Umul8_16+1,w
  6204     056F  1283               	bcf	3,5	;RP0=0, select bank0
  6205     0570  1303               	bcf	3,6	;RP1=0, select bank0
  6206     0571  00C3               	movwf	___flmul@temp+1
  6207     0572  0872               	movf	?__Umul8_16,w
  6208     0573  00C2               	movwf	___flmul@temp
  6209     0574                     l3301:
  6210     0574  0842               	movf	___flmul@temp,w
  6211     0575  00B2               	movwf	??___flmul
  6212     0576  0843               	movf	___flmul@temp+1,w
  6213     0577  00B3               	movwf	??___flmul+1
  6214     0578  01B4               	clrf	??___flmul+2
  6215     0579  01B5               	clrf	??___flmul+3
  6216     057A  0832               	movf	??___flmul,w
  6217     057B  07B9               	addwf	___flmul@grs,f
  6218     057C  0833               	movf	??___flmul+1,w
  6219     057D  1103               	clrz
  6220     057E  1803               	skipnc
  6221     057F  3E01               	addlw	1
  6222     0580  1903               	skipnz
  6223     0581  2D83               	goto	u4501
  6224     0582  07BA               	addwf	___flmul@grs+1,f
  6225     0583                     u4501:
  6226     0583  0834               	movf	??___flmul+2,w
  6227     0584  1103               	clrz
  6228     0585  1803               	skipnc
  6229     0586  3E01               	addlw	1
  6230     0587  1903               	skipnz
  6231     0588  2D8A               	goto	u4502
  6232     0589  07BB               	addwf	___flmul@grs+2,f
  6233     058A                     u4502:
  6234     058A  0835               	movf	??___flmul+3,w
  6235     058B  1103               	clrz
  6236     058C  1803               	skipnc
  6237     058D  3E01               	addlw	1
  6238     058E  1903               	skipnz
  6239     058F  2D91               	goto	u4503
  6240     0590  07BC               	addwf	___flmul@grs+3,f
  6241     0591                     u4503:
  6242     0591                     l3303:
  6243     0591  082B               	movf	___flmul@b+1,w
  6244     0592  00F2               	movwf	__Umul8_16@multiplicand
  6245     0593  0830               	movf	___flmul@a+2,w
  6246     0594  160A  118A  25C9  120A  118A  	fcall	__Umul8_16
  6247     0599  0873               	movf	?__Umul8_16+1,w
  6248     059A  1283               	bcf	3,5	;RP0=0, select bank0
  6249     059B  1303               	bcf	3,6	;RP1=0, select bank0
  6250     059C  00C3               	movwf	___flmul@temp+1
  6251     059D  0872               	movf	?__Umul8_16,w
  6252     059E  00C2               	movwf	___flmul@temp
  6253     059F  0842               	movf	___flmul@temp,w
  6254     05A0  00B2               	movwf	??___flmul
  6255     05A1  0843               	movf	___flmul@temp+1,w
  6256     05A2  00B3               	movwf	??___flmul+1
  6257     05A3  01B4               	clrf	??___flmul+2
  6258     05A4  01B5               	clrf	??___flmul+3
  6259     05A5  0832               	movf	??___flmul,w
  6260     05A6  07BE               	addwf	___flmul@prod,f
  6261     05A7  0833               	movf	??___flmul+1,w
  6262     05A8  1103               	clrz
  6263     05A9  1803               	skipnc
  6264     05AA  3E01               	addlw	1
  6265     05AB  1903               	skipnz
  6266     05AC  2DAE               	goto	u4511
  6267     05AD  07BF               	addwf	___flmul@prod+1,f
  6268     05AE                     u4511:
  6269     05AE  0834               	movf	??___flmul+2,w
  6270     05AF  1103               	clrz
  6271     05B0  1803               	skipnc
  6272     05B1  3E01               	addlw	1
  6273     05B2  1903               	skipnz
  6274     05B3  2DB5               	goto	u4512
  6275     05B4  07C0               	addwf	___flmul@prod+2,f
  6276     05B5                     u4512:
  6277     05B5  0835               	movf	??___flmul+3,w
  6278     05B6  1103               	clrz
  6279     05B7  1803               	skipnc
  6280     05B8  3E01               	addlw	1
  6281     05B9  1903               	skipnz
  6282     05BA  2DBC               	goto	u4513
  6283     05BB  07C1               	addwf	___flmul@prod+3,f
  6284     05BC                     u4513:
  6285     05BC                     l3305:
  6286     05BC  082C               	movf	___flmul@b+2,w
  6287     05BD  00F2               	movwf	__Umul8_16@multiplicand
  6288     05BE  082F               	movf	___flmul@a+1,w
  6289     05BF  160A  118A  25C9  120A  118A  	fcall	__Umul8_16
  6290     05C4  0873               	movf	?__Umul8_16+1,w
  6291     05C5  1283               	bcf	3,5	;RP0=0, select bank0
  6292     05C6  1303               	bcf	3,6	;RP1=0, select bank0
  6293     05C7  00C3               	movwf	___flmul@temp+1
  6294     05C8  0872               	movf	?__Umul8_16,w
  6295     05C9  00C2               	movwf	___flmul@temp
  6296     05CA                     l3307:
  6297     05CA  0842               	movf	___flmul@temp,w
  6298     05CB  00B2               	movwf	??___flmul
  6299     05CC  0843               	movf	___flmul@temp+1,w
  6300     05CD  00B3               	movwf	??___flmul+1
  6301     05CE  01B4               	clrf	??___flmul+2
  6302     05CF  01B5               	clrf	??___flmul+3
  6303     05D0  0832               	movf	??___flmul,w
  6304     05D1  07BE               	addwf	___flmul@prod,f
  6305     05D2  0833               	movf	??___flmul+1,w
  6306     05D3  1103               	clrz
  6307     05D4  1803               	skipnc
  6308     05D5  3E01               	addlw	1
  6309     05D6  1903               	skipnz
  6310     05D7  2DD9               	goto	u4521
  6311     05D8  07BF               	addwf	___flmul@prod+1,f
  6312     05D9                     u4521:
  6313     05D9  0834               	movf	??___flmul+2,w
  6314     05DA  1103               	clrz
  6315     05DB  1803               	skipnc
  6316     05DC  3E01               	addlw	1
  6317     05DD  1903               	skipnz
  6318     05DE  2DE0               	goto	u4522
  6319     05DF  07C0               	addwf	___flmul@prod+2,f
  6320     05E0                     u4522:
  6321     05E0  0835               	movf	??___flmul+3,w
  6322     05E1  1103               	clrz
  6323     05E2  1803               	skipnc
  6324     05E3  3E01               	addlw	1
  6325     05E4  1903               	skipnz
  6326     05E5  2DE7               	goto	u4523
  6327     05E6  07C1               	addwf	___flmul@prod+3,f
  6328     05E7                     u4523:
  6329     05E7  082C               	movf	___flmul@b+2,w
  6330     05E8  00F2               	movwf	__Umul8_16@multiplicand
  6331     05E9  0830               	movf	___flmul@a+2,w
  6332     05EA  160A  118A  25C9  120A  118A  	fcall	__Umul8_16
  6333     05EF  0873               	movf	?__Umul8_16+1,w
  6334     05F0  1283               	bcf	3,5	;RP0=0, select bank0
  6335     05F1  1303               	bcf	3,6	;RP1=0, select bank0
  6336     05F2  00C3               	movwf	___flmul@temp+1
  6337     05F3  0872               	movf	?__Umul8_16,w
  6338     05F4  00C2               	movwf	___flmul@temp
  6339     05F5                     l3309:
  6340     05F5  0842               	movf	___flmul@temp,w
  6341     05F6  00B2               	movwf	??___flmul
  6342     05F7  0843               	movf	___flmul@temp+1,w
  6343     05F8  00B3               	movwf	??___flmul+1
  6344     05F9  01B4               	clrf	??___flmul+2
  6345     05FA  01B5               	clrf	??___flmul+3
  6346     05FB  3008               	movlw	8
  6347     05FC                     u4535:
  6348     05FC  1003               	clrc
  6349     05FD  0DB2               	rlf	??___flmul,f
  6350     05FE  0DB3               	rlf	??___flmul+1,f
  6351     05FF  0DB4               	rlf	??___flmul+2,f
  6352     0600  0DB5               	rlf	??___flmul+3,f
  6353     0601                     u4530:
  6354     0601  3EFF               	addlw	-1
  6355     0602  1D03               	skipz
  6356     0603  2DFC               	goto	u4535
  6357     0604  0832               	movf	??___flmul,w
  6358     0605  07BE               	addwf	___flmul@prod,f
  6359     0606  0833               	movf	??___flmul+1,w
  6360     0607  1103               	clrz
  6361     0608  1803               	skipnc
  6362     0609  3E01               	addlw	1
  6363     060A  1903               	skipnz
  6364     060B  2E0D               	goto	u4541
  6365     060C  07BF               	addwf	___flmul@prod+1,f
  6366     060D                     u4541:
  6367     060D  0834               	movf	??___flmul+2,w
  6368     060E  1103               	clrz
  6369     060F  1803               	skipnc
  6370     0610  3E01               	addlw	1
  6371     0611  1903               	skipnz
  6372     0612  2E14               	goto	u4542
  6373     0613  07C0               	addwf	___flmul@prod+2,f
  6374     0614                     u4542:
  6375     0614  0835               	movf	??___flmul+3,w
  6376     0615  1103               	clrz
  6377     0616  1803               	skipnc
  6378     0617  3E01               	addlw	1
  6379     0618  1903               	skipnz
  6380     0619  2E1B               	goto	u4543
  6381     061A  07C1               	addwf	___flmul@prod+3,f
  6382     061B                     u4543:
  6383     061B                     l3311:
  6384     061B  0839               	movf	___flmul@grs,w
  6385     061C  00B2               	movwf	??___flmul
  6386     061D  083A               	movf	___flmul@grs+1,w
  6387     061E  00B3               	movwf	??___flmul+1
  6388     061F  083B               	movf	___flmul@grs+2,w
  6389     0620  00B4               	movwf	??___flmul+2
  6390     0621  083C               	movf	___flmul@grs+3,w
  6391     0622  00B5               	movwf	??___flmul+3
  6392     0623  3018               	movlw	24
  6393     0624                     u4555:
  6394     0624  1003               	clrc
  6395     0625  0CB5               	rrf	??___flmul+3,f
  6396     0626  0CB4               	rrf	??___flmul+2,f
  6397     0627  0CB3               	rrf	??___flmul+1,f
  6398     0628  0CB2               	rrf	??___flmul,f
  6399     0629                     u4550:
  6400     0629  3EFF               	addlw	-1
  6401     062A  1D03               	skipz
  6402     062B  2E24               	goto	u4555
  6403     062C  0832               	movf	??___flmul,w
  6404     062D  07BE               	addwf	___flmul@prod,f
  6405     062E  0833               	movf	??___flmul+1,w
  6406     062F  1103               	clrz
  6407     0630  1803               	skipnc
  6408     0631  3E01               	addlw	1
  6409     0632  1903               	skipnz
  6410     0633  2E35               	goto	u4561
  6411     0634  07BF               	addwf	___flmul@prod+1,f
  6412     0635                     u4561:
  6413     0635  0834               	movf	??___flmul+2,w
  6414     0636  1103               	clrz
  6415     0637  1803               	skipnc
  6416     0638  3E01               	addlw	1
  6417     0639  1903               	skipnz
  6418     063A  2E3C               	goto	u4562
  6419     063B  07C0               	addwf	___flmul@prod+2,f
  6420     063C                     u4562:
  6421     063C  0835               	movf	??___flmul+3,w
  6422     063D  1103               	clrz
  6423     063E  1803               	skipnc
  6424     063F  3E01               	addlw	1
  6425     0640  1903               	skipnz
  6426     0641  2E43               	goto	u4563
  6427     0642  07C1               	addwf	___flmul@prod+3,f
  6428     0643                     u4563:
  6429     0643                     l3313:
  6430     0643  3008               	movlw	8
  6431     0644  00B2               	movwf	??___flmul
  6432     0645                     u4575:
  6433     0645  1003               	clrc
  6434     0646  0DB9               	rlf	___flmul@grs,f
  6435     0647  0DBA               	rlf	___flmul@grs+1,f
  6436     0648  0DBB               	rlf	___flmul@grs+2,f
  6437     0649  0DBC               	rlf	___flmul@grs+3,f
  6438     064A  0BB2               	decfsz	??___flmul,f
  6439     064B  2E45               	goto	u4575
  6440     064C                     l3315:
  6441     064C  083D               	movf	___flmul@bexp,w
  6442     064D  0738               	addwf	___flmul@aexp,w
  6443     064E  00B2               	movwf	??___flmul
  6444     064F  01B3               	clrf	??___flmul+1
  6445     0650  0DB3               	rlf	??___flmul+1,f
  6446     0651  0832               	movf	??___flmul,w
  6447     0652  3E82               	addlw	130
  6448     0653  00C2               	movwf	___flmul@temp
  6449     0654  0833               	movf	??___flmul+1,w
  6450     0655  1803               	skipnc
  6451     0656  3E01               	addlw	1
  6452     0657  3EFF               	addlw	255
  6453     0658  00C3               	movwf	___flmul@temp+1
  6454     0659  2E77               	goto	l3327
  6455     065A                     l3317:
  6456     065A  3001               	movlw	1
  6457     065B  00B2               	movwf	??___flmul
  6458     065C                     u4585:
  6459     065C  1003               	clrc
  6460     065D  0DBE               	rlf	___flmul@prod,f
  6461     065E  0DBF               	rlf	___flmul@prod+1,f
  6462     065F  0DC0               	rlf	___flmul@prod+2,f
  6463     0660  0DC1               	rlf	___flmul@prod+3,f
  6464     0661  0BB2               	decfsz	??___flmul,f
  6465     0662  2E5C               	goto	u4585
  6466     0663                     l3319:
  6467     0663  1FBC               	btfss	___flmul@grs+3,7
  6468     0664  2E66               	goto	u4591
  6469     0665  2E67               	goto	u4590
  6470     0666                     u4591:
  6471     0666  2E68               	goto	l3323
  6472     0667                     u4590:
  6473     0667                     l3321:
  6474     0667  143E               	bsf	___flmul@prod,0
  6475     0668                     l3323:
  6476     0668  3001               	movlw	1
  6477     0669  00B2               	movwf	??___flmul
  6478     066A                     u4605:
  6479     066A  1003               	clrc
  6480     066B  0DB9               	rlf	___flmul@grs,f
  6481     066C  0DBA               	rlf	___flmul@grs+1,f
  6482     066D  0DBB               	rlf	___flmul@grs+2,f
  6483     066E  0DBC               	rlf	___flmul@grs+3,f
  6484     066F  0BB2               	decfsz	??___flmul,f
  6485     0670  2E6A               	goto	u4605
  6486     0671                     l3325:
  6487     0671  30FF               	movlw	255
  6488     0672  07C2               	addwf	___flmul@temp,f
  6489     0673  1803               	skipnc
  6490     0674  0AC3               	incf	___flmul@temp+1,f
  6491     0675  30FF               	movlw	255
  6492     0676  07C3               	addwf	___flmul@temp+1,f
  6493     0677                     l3327:
  6494     0677  1FC0               	btfss	___flmul@prod+2,7
  6495     0678  2E7A               	goto	u4611
  6496     0679  2E7B               	goto	u4610
  6497     067A                     u4611:
  6498     067A  2E5A               	goto	l3317
  6499     067B                     u4610:
  6500     067B                     l3329:
  6501     067B  01B8               	clrf	___flmul@aexp
  6502     067C                     l3331:
  6503     067C  1FBC               	btfss	___flmul@grs+3,7
  6504     067D  2E7F               	goto	u4621
  6505     067E  2E80               	goto	u4620
  6506     067F                     u4621:
  6507     067F  2E9C               	goto	l3339
  6508     0680                     u4620:
  6509     0680                     l3333:
  6510     0680  30FF               	movlw	255
  6511     0681  0539               	andwf	___flmul@grs,w
  6512     0682  00B2               	movwf	??___flmul
  6513     0683  30FF               	movlw	255
  6514     0684  053A               	andwf	___flmul@grs+1,w
  6515     0685  00B3               	movwf	??___flmul+1
  6516     0686  30FF               	movlw	255
  6517     0687  053B               	andwf	___flmul@grs+2,w
  6518     0688  00B4               	movwf	??___flmul+2
  6519     0689  307F               	movlw	127
  6520     068A  053C               	andwf	___flmul@grs+3,w
  6521     068B  00B5               	movwf	??___flmul+3
  6522     068C  0835               	movf	??___flmul+3,w
  6523     068D  0434               	iorwf	??___flmul+2,w
  6524     068E  0433               	iorwf	??___flmul+1,w
  6525     068F  0432               	iorwf	??___flmul,w
  6526     0690  1903               	skipnz
  6527     0691  2E93               	goto	u4631
  6528     0692  2E94               	goto	u4630
  6529     0693                     u4631:
  6530     0693  2E97               	goto	l798
  6531     0694                     u4630:
  6532     0694                     l3335:
  6533     0694  01B8               	clrf	___flmul@aexp
  6534     0695  0AB8               	incf	___flmul@aexp,f
  6535     0696  2E9C               	goto	l3339
  6536     0697                     l798:
  6537     0697  1C3E               	btfss	___flmul@prod,0
  6538     0698  2E9A               	goto	u4641
  6539     0699  2E9B               	goto	u4640
  6540     069A                     u4641:
  6541     069A  2E9C               	goto	l3339
  6542     069B                     u4640:
  6543     069B  2E94               	goto	l3335
  6544     069C                     l3339:
  6545     069C  0838               	movf	___flmul@aexp,w
  6546     069D  1903               	btfsc	3,2
  6547     069E  2EA0               	goto	u4651
  6548     069F  2EA1               	goto	u4650
  6549     06A0                     u4651:
  6550     06A0  2ED2               	goto	l3349
  6551     06A1                     u4650:
  6552     06A1                     l3341:
  6553     06A1  3001               	movlw	1
  6554     06A2  07BE               	addwf	___flmul@prod,f
  6555     06A3  3000               	movlw	0
  6556     06A4  1803               	skipnc
  6557     06A5  3001               	movlw	1
  6558     06A6  07BF               	addwf	___flmul@prod+1,f
  6559     06A7  3000               	movlw	0
  6560     06A8  1803               	skipnc
  6561     06A9  3001               	movlw	1
  6562     06AA  07C0               	addwf	___flmul@prod+2,f
  6563     06AB  3000               	movlw	0
  6564     06AC  1803               	skipnc
  6565     06AD  3001               	movlw	1
  6566     06AE  07C1               	addwf	___flmul@prod+3,f
  6567     06AF                     l3343:
  6568     06AF  1C41               	btfss	___flmul@prod+3,0
  6569     06B0  2EB2               	goto	u4661
  6570     06B1  2EB3               	goto	u4660
  6571     06B2                     u4661:
  6572     06B2  2ED2               	goto	l3349
  6573     06B3                     u4660:
  6574     06B3                     l3345:
  6575     06B3  083E               	movf	___flmul@prod,w
  6576     06B4  00B2               	movwf	??___flmul
  6577     06B5  083F               	movf	___flmul@prod+1,w
  6578     06B6  00B3               	movwf	??___flmul+1
  6579     06B7  0840               	movf	___flmul@prod+2,w
  6580     06B8  00B4               	movwf	??___flmul+2
  6581     06B9  0841               	movf	___flmul@prod+3,w
  6582     06BA  00B5               	movwf	??___flmul+3
  6583     06BB  3001               	movlw	1
  6584     06BC  00B6               	movwf	??___flmul+4
  6585     06BD                     u4675:
  6586     06BD  0D35               	rlf	??___flmul+3,w
  6587     06BE  0CB5               	rrf	??___flmul+3,f
  6588     06BF  0CB4               	rrf	??___flmul+2,f
  6589     06C0  0CB3               	rrf	??___flmul+1,f
  6590     06C1  0CB2               	rrf	??___flmul,f
  6591     06C2                     u4670:
  6592     06C2  0BB6               	decfsz	??___flmul+4,f
  6593     06C3  2EBD               	goto	u4675
  6594     06C4  0835               	movf	??___flmul+3,w
  6595     06C5  00C1               	movwf	___flmul@prod+3
  6596     06C6  0834               	movf	??___flmul+2,w
  6597     06C7  00C0               	movwf	___flmul@prod+2
  6598     06C8  0833               	movf	??___flmul+1,w
  6599     06C9  00BF               	movwf	___flmul@prod+1
  6600     06CA  0832               	movf	??___flmul,w
  6601     06CB  00BE               	movwf	___flmul@prod
  6602     06CC                     l3347:
  6603     06CC  3001               	movlw	1
  6604     06CD  07C2               	addwf	___flmul@temp,f
  6605     06CE  1803               	skipnc
  6606     06CF  0AC3               	incf	___flmul@temp+1,f
  6607     06D0  3000               	movlw	0
  6608     06D1  07C3               	addwf	___flmul@temp+1,f
  6609     06D2                     l3349:
  6610     06D2  0843               	movf	___flmul@temp+1,w
  6611     06D3  3A80               	xorlw	128
  6612     06D4  00FF               	movwf	btemp+1
  6613     06D5  3080               	movlw	128
  6614     06D6  027F               	subwf	btemp+1,w
  6615     06D7  1D03               	skipz
  6616     06D8  2EDB               	goto	u4685
  6617     06D9  30FF               	movlw	255
  6618     06DA  0242               	subwf	___flmul@temp,w
  6619     06DB                     u4685:
  6620     06DB  1C03               	skipc
  6621     06DC  2EDE               	goto	u4681
  6622     06DD  2EDF               	goto	u4680
  6623     06DE                     u4681:
  6624     06DE  2EEA               	goto	l3353
  6625     06DF                     u4680:
  6626     06DF                     l3351:
  6627     06DF  307F               	movlw	127
  6628     06E0  1283               	bcf	3,5	;RP0=0, select bank0
  6629     06E1  1303               	bcf	3,6	;RP1=0, select bank0
  6630     06E2  00C1               	movwf	___flmul@prod+3
  6631     06E3  3080               	movlw	128
  6632     06E4  00C0               	movwf	___flmul@prod+2
  6633     06E5  3000               	movlw	0
  6634     06E6  00BF               	movwf	___flmul@prod+1
  6635     06E7  3000               	movlw	0
  6636     06E8  00BE               	movwf	___flmul@prod
  6637     06E9  2F1B               	goto	l3367
  6638     06EA                     l3353:
  6639     06EA  1283               	bcf	3,5	;RP0=0, select bank0
  6640     06EB  1303               	bcf	3,6	;RP1=0, select bank0
  6641     06EC  0843               	movf	___flmul@temp+1,w
  6642     06ED  3A80               	xorlw	128
  6643     06EE  00FF               	movwf	btemp+1
  6644     06EF  3080               	movlw	128
  6645     06F0  027F               	subwf	btemp+1,w
  6646     06F1  1D03               	skipz
  6647     06F2  2EF5               	goto	u4695
  6648     06F3  3001               	movlw	1
  6649     06F4  0242               	subwf	___flmul@temp,w
  6650     06F5                     u4695:
  6651     06F5  1803               	skipnc
  6652     06F6  2EF8               	goto	u4691
  6653     06F7  2EF9               	goto	u4690
  6654     06F8                     u4691:
  6655     06F8  2F05               	goto	l3359
  6656     06F9                     u4690:
  6657     06F9                     l3355:
  6658     06F9  3000               	movlw	0
  6659     06FA  1283               	bcf	3,5	;RP0=0, select bank0
  6660     06FB  1303               	bcf	3,6	;RP1=0, select bank0
  6661     06FC  00C1               	movwf	___flmul@prod+3
  6662     06FD  3000               	movlw	0
  6663     06FE  00C0               	movwf	___flmul@prod+2
  6664     06FF  3000               	movlw	0
  6665     0700  00BF               	movwf	___flmul@prod+1
  6666     0701  3000               	movlw	0
  6667     0702  00BE               	movwf	___flmul@prod
  6668     0703                     l3357:
  6669     0703  01B7               	clrf	___flmul@sign
  6670     0704  2F1B               	goto	l3367
  6671     0705                     l3359:
  6672     0705  1283               	bcf	3,5	;RP0=0, select bank0
  6673     0706  1303               	bcf	3,6	;RP1=0, select bank0
  6674     0707  0842               	movf	___flmul@temp,w
  6675     0708  00BD               	movwf	___flmul@bexp
  6676     0709  30FF               	movlw	255
  6677     070A  05BE               	andwf	___flmul@prod,f
  6678     070B  30FF               	movlw	255
  6679     070C  05BF               	andwf	___flmul@prod+1,f
  6680     070D  307F               	movlw	127
  6681     070E  05C0               	andwf	___flmul@prod+2,f
  6682     070F  3000               	movlw	0
  6683     0710  05C1               	andwf	___flmul@prod+3,f
  6684     0711                     l3361:
  6685     0711  1C3D               	btfss	___flmul@bexp,0
  6686     0712  2F14               	goto	u4701
  6687     0713  2F15               	goto	u4700
  6688     0714                     u4701:
  6689     0714  2F16               	goto	l3365
  6690     0715                     u4700:
  6691     0715                     l3363:
  6692     0715  17C0               	bsf	___flmul@prod+2,7
  6693     0716                     l3365:
  6694     0716  083D               	movf	___flmul@bexp,w
  6695     0717  00B2               	movwf	??___flmul
  6696     0718  1003               	clrc
  6697     0719  0C32               	rrf	??___flmul,w
  6698     071A  00C1               	movwf	___flmul@prod+3
  6699     071B                     l3367:
  6700     071B  0837               	movf	___flmul@sign,w
  6701     071C  00FF               	movwf	btemp+1
  6702     071D  087F               	movf	btemp+1,w
  6703     071E  04C1               	iorwf	___flmul@prod+3,f
  6704     071F                     l3369:
  6705     071F  0841               	movf	___flmul@prod+3,w
  6706     0720  00AD               	movwf	?___flmul+3
  6707     0721  0840               	movf	___flmul@prod+2,w
  6708     0722  00AC               	movwf	?___flmul+2
  6709     0723  083F               	movf	___flmul@prod+1,w
  6710     0724  00AB               	movwf	?___flmul+1
  6711     0725  083E               	movf	___flmul@prod,w
  6712     0726  00AA               	movwf	?___flmul
  6713     0727                     l792:
  6714     0727  0008               	return
  6715     0728                     __end_of___flmul:
  6716                           
  6717                           	psect	text13
  6718     15C9                     __ptext13:	
  6719 ;; *************** function __Umul8_16 *****************
  6720 ;; Defined at:
  6721 ;;		line 4 in file "C:\Program Files\Microchip\xc8\v2.46\pic\sources\c99\common\Umul8_16.c"
  6722 ;; Parameters:    Size  Location     Type
  6723 ;;  multiplier      1    wreg     unsigned char 
  6724 ;;  multiplicand    1    2[COMMON] unsigned char 
  6725 ;; Auto vars:     Size  Location     Type
  6726 ;;  multiplier      1    4[BANK0 ] unsigned char 
  6727 ;;  word_mpld       2    2[BANK0 ] unsigned short 
  6728 ;;  product         2    0[BANK0 ] unsigned short 
  6729 ;; Return value:  Size  Location     Type
  6730 ;;                  2    2[COMMON] unsigned int 
  6731 ;; Registers used:
  6732 ;;		wreg, status,2, status,0
  6733 ;; Tracked objects:
  6734 ;;		On entry : 0/0
  6735 ;;		On exit  : 0/0
  6736 ;;		Unchanged: 0/0
  6737 ;; Data sizes:     COMMON   BANK0   BANK1   BANK3   BANK2
  6738 ;;      Params:         2       0       0       0       0
  6739 ;;      Locals:         0       5       0       0       0
  6740 ;;      Temps:          2       0       0       0       0
  6741 ;;      Totals:         4       5       0       0       0
  6742 ;;Total ram usage:        9 bytes
  6743 ;; Hardware stack levels used: 1
  6744 ;; Hardware stack levels required when called: 1
  6745 ;; This function calls:
  6746 ;;		Nothing
  6747 ;; This function is called by:
  6748 ;;		___flmul
  6749 ;; This function uses a non-reentrant model
  6750 ;;
  6751                           
  6752     15C9                     __Umul8_16:	
  6753                           ;psect for function __Umul8_16
  6754                           
  6755                           
  6756                           ;incstack = 0
  6757                           ; Regs used in __Umul8_16: [wreg+status,2+status,0]
  6758                           ;__Umul8_16@multiplier stored from wreg
  6759     15C9  1283               	bcf	3,5	;RP0=0, select bank0
  6760     15CA  1303               	bcf	3,6	;RP1=0, select bank0
  6761     15CB  00A4               	movwf	__Umul8_16@multiplier
  6762     15CC                     l3013:
  6763     15CC  01A0               	clrf	__Umul8_16@product
  6764     15CD  01A1               	clrf	__Umul8_16@product+1
  6765     15CE                     l3015:
  6766     15CE  0872               	movf	__Umul8_16@multiplicand,w
  6767     15CF  00F4               	movwf	??__Umul8_16
  6768     15D0  01F5               	clrf	??__Umul8_16+1
  6769     15D1  0874               	movf	??__Umul8_16,w
  6770     15D2  00A2               	movwf	__Umul8_16@word_mpld
  6771     15D3  0875               	movf	??__Umul8_16+1,w
  6772     15D4  00A3               	movwf	__Umul8_16@word_mpld+1
  6773     15D5                     l3017:
  6774     15D5  1C24               	btfss	__Umul8_16@multiplier,0
  6775     15D6  2DD8               	goto	u3891
  6776     15D7  2DD9               	goto	u3890
  6777     15D8                     u3891:
  6778     15D8  2DDF               	goto	l811
  6779     15D9                     u3890:
  6780     15D9                     l3019:
  6781     15D9  0822               	movf	__Umul8_16@word_mpld,w
  6782     15DA  07A0               	addwf	__Umul8_16@product,f
  6783     15DB  1803               	skipnc
  6784     15DC  0AA1               	incf	__Umul8_16@product+1,f
  6785     15DD  0823               	movf	__Umul8_16@word_mpld+1,w
  6786     15DE  07A1               	addwf	__Umul8_16@product+1,f
  6787     15DF                     l811:
  6788     15DF  3001               	movlw	1
  6789     15E0                     u3905:
  6790     15E0  1003               	clrc
  6791     15E1  0DA2               	rlf	__Umul8_16@word_mpld,f
  6792     15E2  0DA3               	rlf	__Umul8_16@word_mpld+1,f
  6793     15E3  3EFF               	addlw	-1
  6794     15E4  1D03               	skipz
  6795     15E5  2DE0               	goto	u3905
  6796     15E6  1003               	clrc
  6797     15E7  0CA4               	rrf	__Umul8_16@multiplier,f
  6798     15E8                     l3021:
  6799     15E8  0824               	movf	__Umul8_16@multiplier,w
  6800     15E9  1D03               	btfss	3,2
  6801     15EA  2DEC               	goto	u3911
  6802     15EB  2DED               	goto	u3910
  6803     15EC                     u3911:
  6804     15EC  2DD5               	goto	l3017
  6805     15ED                     u3910:
  6806     15ED                     l3023:
  6807     15ED  0821               	movf	__Umul8_16@product+1,w
  6808     15EE  00F3               	movwf	?__Umul8_16+1
  6809     15EF  0820               	movf	__Umul8_16@product,w
  6810     15F0  00F2               	movwf	?__Umul8_16
  6811     15F1                     l813:
  6812     15F1  0008               	return
  6813     15F2                     __end_of__Umul8_16:
  6814                           
  6815                           	psect	text14
  6816     08F9                     __ptext14:	
  6817 ;; *************** function ___flge *****************
  6818 ;; Defined at:
  6819 ;;		line 4 in file "C:\Program Files\Microchip\xc8\v2.46\pic\sources\c99\common\flge.c"
  6820 ;; Parameters:    Size  Location     Type
  6821 ;;  ff1             4   44[BANK0 ] unsigned int 
  6822 ;;  ff2             4   48[BANK0 ] unsigned int 
  6823 ;; Auto vars:     Size  Location     Type
  6824 ;;		None
  6825 ;; Return value:  Size  Location     Type
  6826 ;;		None               void
  6827 ;; Registers used:
  6828 ;;		wreg, status,2, status,0
  6829 ;; Tracked objects:
  6830 ;;		On entry : 0/0
  6831 ;;		On exit  : 0/0
  6832 ;;		Unchanged: 0/0
  6833 ;; Data sizes:     COMMON   BANK0   BANK1   BANK3   BANK2
  6834 ;;      Params:         0       8       0       0       0
  6835 ;;      Locals:         0       0       0       0       0
  6836 ;;      Temps:          0       4       0       0       0
  6837 ;;      Totals:         0      12       0       0       0
  6838 ;;Total ram usage:       12 bytes
  6839 ;; Hardware stack levels used: 1
  6840 ;; Hardware stack levels required when called: 1
  6841 ;; This function calls:
  6842 ;;		Nothing
  6843 ;; This function is called by:
  6844 ;;		_run_program
  6845 ;; This function uses a non-reentrant model
  6846 ;;
  6847                           
  6848     08F9                     ___flge:	
  6849                           ;psect for function ___flge
  6850                           
  6851     08F9                     l3167:	
  6852                           ;incstack = 0
  6853                           ; Regs used in ___flge: [wreg+status,2+status,0]
  6854                           
  6855     08F9  3000               	movlw	0
  6856     08FA  1283               	bcf	3,5	;RP0=0, select bank0
  6857     08FB  1303               	bcf	3,6	;RP1=0, select bank0
  6858     08FC  054C               	andwf	___flge@ff1,w
  6859     08FD  00D4               	movwf	??___flge
  6860     08FE  3000               	movlw	0
  6861     08FF  054D               	andwf	___flge@ff1+1,w
  6862     0900  00D5               	movwf	??___flge+1
  6863     0901  3080               	movlw	128
  6864     0902  054E               	andwf	___flge@ff1+2,w
  6865     0903  00D6               	movwf	??___flge+2
  6866     0904  307F               	movlw	127
  6867     0905  054F               	andwf	___flge@ff1+3,w
  6868     0906  00D7               	movwf	??___flge+3
  6869     0907  0857               	movf	??___flge+3,w
  6870     0908  0456               	iorwf	??___flge+2,w
  6871     0909  0455               	iorwf	??___flge+1,w
  6872     090A  0454               	iorwf	??___flge,w
  6873     090B  1D03               	skipz
  6874     090C  290E               	goto	u4171
  6875     090D  290F               	goto	u4170
  6876     090E                     u4171:
  6877     090E  2917               	goto	l573
  6878     090F                     u4170:
  6879     090F                     l3169:
  6880     090F  3000               	movlw	0
  6881     0910  00CF               	movwf	___flge@ff1+3
  6882     0911  3000               	movlw	0
  6883     0912  00CE               	movwf	___flge@ff1+2
  6884     0913  3000               	movlw	0
  6885     0914  00CD               	movwf	___flge@ff1+1
  6886     0915  3000               	movlw	0
  6887     0916  00CC               	movwf	___flge@ff1
  6888     0917                     l573:
  6889     0917  3000               	movlw	0
  6890     0918  0550               	andwf	___flge@ff2,w
  6891     0919  00D4               	movwf	??___flge
  6892     091A  3000               	movlw	0
  6893     091B  0551               	andwf	___flge@ff2+1,w
  6894     091C  00D5               	movwf	??___flge+1
  6895     091D  3080               	movlw	128
  6896     091E  0552               	andwf	___flge@ff2+2,w
  6897     091F  00D6               	movwf	??___flge+2
  6898     0920  307F               	movlw	127
  6899     0921  0553               	andwf	___flge@ff2+3,w
  6900     0922  00D7               	movwf	??___flge+3
  6901     0923  0857               	movf	??___flge+3,w
  6902     0924  0456               	iorwf	??___flge+2,w
  6903     0925  0455               	iorwf	??___flge+1,w
  6904     0926  0454               	iorwf	??___flge,w
  6905     0927  1D03               	skipz
  6906     0928  292A               	goto	u4181
  6907     0929  292B               	goto	u4180
  6908     092A                     u4181:
  6909     092A  2933               	goto	l3173
  6910     092B                     u4180:
  6911     092B                     l3171:
  6912     092B  3000               	movlw	0
  6913     092C  00D3               	movwf	___flge@ff2+3
  6914     092D  3000               	movlw	0
  6915     092E  00D2               	movwf	___flge@ff2+2
  6916     092F  3000               	movlw	0
  6917     0930  00D1               	movwf	___flge@ff2+1
  6918     0931  3000               	movlw	0
  6919     0932  00D0               	movwf	___flge@ff2
  6920     0933                     l3173:
  6921     0933  1FCF               	btfss	___flge@ff1+3,7
  6922     0934  2936               	goto	u4191
  6923     0935  2937               	goto	u4190
  6924     0936                     u4191:
  6925     0936  295B               	goto	l3177
  6926     0937                     u4190:
  6927     0937                     l3175:
  6928     0937  3000               	movlw	0
  6929     0938  00D4               	movwf	??___flge
  6930     0939  3000               	movlw	0
  6931     093A  00D5               	movwf	??___flge+1
  6932     093B  3000               	movlw	0
  6933     093C  00D6               	movwf	??___flge+2
  6934     093D  3080               	movlw	128
  6935     093E  00D7               	movwf	??___flge+3
  6936     093F  084C               	movf	___flge@ff1,w
  6937     0940  02D4               	subwf	??___flge,f
  6938     0941  084D               	movf	___flge@ff1+1,w
  6939     0942  1C03               	skipc
  6940     0943  0F4D               	incfsz	___flge@ff1+1,w
  6941     0944  2946               	goto	u4201
  6942     0945  2947               	goto	u4202
  6943     0946                     u4201:
  6944     0946  02D5               	subwf	??___flge+1,f
  6945     0947                     u4202:
  6946     0947  084E               	movf	___flge@ff1+2,w
  6947     0948  1C03               	skipc
  6948     0949  0F4E               	incfsz	___flge@ff1+2,w
  6949     094A  294C               	goto	u4203
  6950     094B  294D               	goto	u4204
  6951     094C                     u4203:
  6952     094C  02D6               	subwf	??___flge+2,f
  6953     094D                     u4204:
  6954     094D  084F               	movf	___flge@ff1+3,w
  6955     094E  1C03               	skipc
  6956     094F  0F4F               	incfsz	___flge@ff1+3,w
  6957     0950  2952               	goto	u4205
  6958     0951  2953               	goto	u4206
  6959     0952                     u4205:
  6960     0952  02D7               	subwf	??___flge+3,f
  6961     0953                     u4206:
  6962     0953  0857               	movf	??___flge+3,w
  6963     0954  00CF               	movwf	___flge@ff1+3
  6964     0955  0856               	movf	??___flge+2,w
  6965     0956  00CE               	movwf	___flge@ff1+2
  6966     0957  0855               	movf	??___flge+1,w
  6967     0958  00CD               	movwf	___flge@ff1+1
  6968     0959  0854               	movf	??___flge,w
  6969     095A  00CC               	movwf	___flge@ff1
  6970     095B                     l3177:
  6971     095B  1FD3               	btfss	___flge@ff2+3,7
  6972     095C  295E               	goto	u4211
  6973     095D  295F               	goto	u4210
  6974     095E                     u4211:
  6975     095E  2983               	goto	l576
  6976     095F                     u4210:
  6977     095F                     l3179:
  6978     095F  3000               	movlw	0
  6979     0960  00D4               	movwf	??___flge
  6980     0961  3000               	movlw	0
  6981     0962  00D5               	movwf	??___flge+1
  6982     0963  3000               	movlw	0
  6983     0964  00D6               	movwf	??___flge+2
  6984     0965  3080               	movlw	128
  6985     0966  00D7               	movwf	??___flge+3
  6986     0967  0850               	movf	___flge@ff2,w
  6987     0968  02D4               	subwf	??___flge,f
  6988     0969  0851               	movf	___flge@ff2+1,w
  6989     096A  1C03               	skipc
  6990     096B  0F51               	incfsz	___flge@ff2+1,w
  6991     096C  296E               	goto	u4221
  6992     096D  296F               	goto	u4222
  6993     096E                     u4221:
  6994     096E  02D5               	subwf	??___flge+1,f
  6995     096F                     u4222:
  6996     096F  0852               	movf	___flge@ff2+2,w
  6997     0970  1C03               	skipc
  6998     0971  0F52               	incfsz	___flge@ff2+2,w
  6999     0972  2974               	goto	u4223
  7000     0973  2975               	goto	u4224
  7001     0974                     u4223:
  7002     0974  02D6               	subwf	??___flge+2,f
  7003     0975                     u4224:
  7004     0975  0853               	movf	___flge@ff2+3,w
  7005     0976  1C03               	skipc
  7006     0977  0F53               	incfsz	___flge@ff2+3,w
  7007     0978  297A               	goto	u4225
  7008     0979  297B               	goto	u4226
  7009     097A                     u4225:
  7010     097A  02D7               	subwf	??___flge+3,f
  7011     097B                     u4226:
  7012     097B  0857               	movf	??___flge+3,w
  7013     097C  00D3               	movwf	___flge@ff2+3
  7014     097D  0856               	movf	??___flge+2,w
  7015     097E  00D2               	movwf	___flge@ff2+2
  7016     097F  0855               	movf	??___flge+1,w
  7017     0980  00D1               	movwf	___flge@ff2+1
  7018     0981  0854               	movf	??___flge,w
  7019     0982  00D0               	movwf	___flge@ff2
  7020     0983                     l576:
  7021     0983  3080               	movlw	128
  7022     0984  06CF               	xorwf	___flge@ff1+3,f
  7023     0985  3080               	movlw	128
  7024     0986  06D3               	xorwf	___flge@ff2+3,f
  7025     0987  0853               	movf	___flge@ff2+3,w
  7026     0988  024F               	subwf	___flge@ff1+3,w
  7027     0989  1D03               	skipz
  7028     098A  2995               	goto	u4235
  7029     098B  0852               	movf	___flge@ff2+2,w
  7030     098C  024E               	subwf	___flge@ff1+2,w
  7031     098D  1D03               	skipz
  7032     098E  2995               	goto	u4235
  7033     098F  0851               	movf	___flge@ff2+1,w
  7034     0990  024D               	subwf	___flge@ff1+1,w
  7035     0991  1D03               	skipz
  7036     0992  2995               	goto	u4235
  7037     0993  0850               	movf	___flge@ff2,w
  7038     0994  024C               	subwf	___flge@ff1,w
  7039     0995                     u4235:
  7040     0995  1803               	skipnc
  7041     0996  2998               	goto	u4231
  7042     0997  2999               	goto	u4230
  7043     0998                     u4231:
  7044     0998  299B               	goto	l3183
  7045     0999                     u4230:
  7046     0999                     l3181:
  7047     0999  1003               	clrc
  7048     099A  299C               	goto	l581
  7049     099B                     l3183:
  7050     099B  1403               	setc
  7051     099C                     l581:
  7052     099C  0008               	return
  7053     099D                     __end_of___flge:
  7054                           
  7055                           	psect	text15
  7056     1748                     __ptext15:	
  7057 ;; *************** function ___awmod *****************
  7058 ;; Defined at:
  7059 ;;		line 5 in file "C:\Program Files\Microchip\xc8\v2.46\pic\sources\c99\common\awmod.c"
  7060 ;; Parameters:    Size  Location     Type
  7061 ;;  divisor         2    2[COMMON] int 
  7062 ;;  dividend        2    4[COMMON] int 
  7063 ;; Auto vars:     Size  Location     Type
  7064 ;;  sign            1    7[COMMON] unsigned char 
  7065 ;;  counter         1    6[COMMON] unsigned char 
  7066 ;; Return value:  Size  Location     Type
  7067 ;;                  2    2[COMMON] int 
  7068 ;; Registers used:
  7069 ;;		wreg, status,2, status,0, btemp+1
  7070 ;; Tracked objects:
  7071 ;;		On entry : 0/0
  7072 ;;		On exit  : 0/0
  7073 ;;		Unchanged: 0/0
  7074 ;; Data sizes:     COMMON   BANK0   BANK1   BANK3   BANK2
  7075 ;;      Params:         4       0       0       0       0
  7076 ;;      Locals:         2       0       0       0       0
  7077 ;;      Temps:          0       0       0       0       0
  7078 ;;      Totals:         6       0       0       0       0
  7079 ;;Total ram usage:        6 bytes
  7080 ;; Hardware stack levels used: 1
  7081 ;; Hardware stack levels required when called: 1
  7082 ;; This function calls:
  7083 ;;		Nothing
  7084 ;; This function is called by:
  7085 ;;		_run_program
  7086 ;; This function uses a non-reentrant model
  7087 ;;
  7088                           
  7089     1748                     ___awmod:	
  7090                           ;psect for function ___awmod
  7091                           
  7092     1748                     l3129:	
  7093                           ;incstack = 0
  7094                           ; Regs used in ___awmod: [wreg+status,2+status,0+btemp+1]
  7095                           
  7096     1748  01F7               	clrf	___awmod@sign
  7097     1749                     l3131:
  7098     1749  1FF5               	btfss	___awmod@dividend+1,7
  7099     174A  2F4C               	goto	u4081
  7100     174B  2F4D               	goto	u4080
  7101     174C                     u4081:
  7102     174C  2F54               	goto	l3137
  7103     174D                     u4080:
  7104     174D                     l3133:
  7105     174D  09F4               	comf	___awmod@dividend,f
  7106     174E  09F5               	comf	___awmod@dividend+1,f
  7107     174F  0AF4               	incf	___awmod@dividend,f
  7108     1750  1903               	skipnz
  7109     1751  0AF5               	incf	___awmod@dividend+1,f
  7110     1752                     l3135:
  7111     1752  01F7               	clrf	___awmod@sign
  7112     1753  0AF7               	incf	___awmod@sign,f
  7113     1754                     l3137:
  7114     1754  1FF3               	btfss	___awmod@divisor+1,7
  7115     1755  2F57               	goto	u4091
  7116     1756  2F58               	goto	u4090
  7117     1757                     u4091:
  7118     1757  2F5D               	goto	l3141
  7119     1758                     u4090:
  7120     1758                     l3139:
  7121     1758  09F2               	comf	___awmod@divisor,f
  7122     1759  09F3               	comf	___awmod@divisor+1,f
  7123     175A  0AF2               	incf	___awmod@divisor,f
  7124     175B  1903               	skipnz
  7125     175C  0AF3               	incf	___awmod@divisor+1,f
  7126     175D                     l3141:
  7127     175D  0872               	movf	___awmod@divisor,w
  7128     175E  0473               	iorwf	___awmod@divisor+1,w
  7129     175F  1903               	btfsc	3,2
  7130     1760  2F62               	goto	u4101
  7131     1761  2F63               	goto	u4100
  7132     1762                     u4101:
  7133     1762  2F92               	goto	l3159
  7134     1763                     u4100:
  7135     1763                     l3143:
  7136     1763  01F6               	clrf	___awmod@counter
  7137     1764  0AF6               	incf	___awmod@counter,f
  7138     1765  2F71               	goto	l3149
  7139     1766                     l3145:
  7140     1766  3001               	movlw	1
  7141     1767                     u4115:
  7142     1767  1003               	clrc
  7143     1768  0DF2               	rlf	___awmod@divisor,f
  7144     1769  0DF3               	rlf	___awmod@divisor+1,f
  7145     176A  3EFF               	addlw	-1
  7146     176B  1D03               	skipz
  7147     176C  2F67               	goto	u4115
  7148     176D                     l3147:
  7149     176D  3001               	movlw	1
  7150     176E  00FF               	movwf	btemp+1
  7151     176F  087F               	movf	btemp+1,w
  7152     1770  07F6               	addwf	___awmod@counter,f
  7153     1771                     l3149:
  7154     1771  1FF3               	btfss	___awmod@divisor+1,7
  7155     1772  2F74               	goto	u4121
  7156     1773  2F75               	goto	u4120
  7157     1774                     u4121:
  7158     1774  2F66               	goto	l3145
  7159     1775                     u4120:
  7160     1775                     l3151:
  7161     1775  0873               	movf	___awmod@divisor+1,w
  7162     1776  0275               	subwf	___awmod@dividend+1,w
  7163     1777  1D03               	skipz
  7164     1778  2F7B               	goto	u4135
  7165     1779  0872               	movf	___awmod@divisor,w
  7166     177A  0274               	subwf	___awmod@dividend,w
  7167     177B                     u4135:
  7168     177B  1C03               	skipc
  7169     177C  2F7E               	goto	u4131
  7170     177D  2F7F               	goto	u4130
  7171     177E                     u4131:
  7172     177E  2F85               	goto	l3155
  7173     177F                     u4130:
  7174     177F                     l3153:
  7175     177F  0872               	movf	___awmod@divisor,w
  7176     1780  02F4               	subwf	___awmod@dividend,f
  7177     1781  0873               	movf	___awmod@divisor+1,w
  7178     1782  1C03               	skipc
  7179     1783  03F5               	decf	___awmod@dividend+1,f
  7180     1784  02F5               	subwf	___awmod@dividend+1,f
  7181     1785                     l3155:
  7182     1785  3001               	movlw	1
  7183     1786                     u4145:
  7184     1786  1003               	clrc
  7185     1787  0CF3               	rrf	___awmod@divisor+1,f
  7186     1788  0CF2               	rrf	___awmod@divisor,f
  7187     1789  3EFF               	addlw	-1
  7188     178A  1D03               	skipz
  7189     178B  2F86               	goto	u4145
  7190     178C                     l3157:
  7191     178C  3001               	movlw	1
  7192     178D  02F6               	subwf	___awmod@counter,f
  7193     178E  1D03               	btfss	3,2
  7194     178F  2F91               	goto	u4151
  7195     1790  2F92               	goto	u4150
  7196     1791                     u4151:
  7197     1791  2F75               	goto	l3151
  7198     1792                     u4150:
  7199     1792                     l3159:
  7200     1792  0877               	movf	___awmod@sign,w
  7201     1793  1903               	btfsc	3,2
  7202     1794  2F96               	goto	u4161
  7203     1795  2F97               	goto	u4160
  7204     1796                     u4161:
  7205     1796  2F9C               	goto	l3163
  7206     1797                     u4160:
  7207     1797                     l3161:
  7208     1797  09F4               	comf	___awmod@dividend,f
  7209     1798  09F5               	comf	___awmod@dividend+1,f
  7210     1799  0AF4               	incf	___awmod@dividend,f
  7211     179A  1903               	skipnz
  7212     179B  0AF5               	incf	___awmod@dividend+1,f
  7213     179C                     l3163:
  7214     179C  0875               	movf	___awmod@dividend+1,w
  7215     179D  00F3               	movwf	?___awmod+1
  7216     179E  0874               	movf	___awmod@dividend,w
  7217     179F  00F2               	movwf	?___awmod
  7218     17A0                     l561:
  7219     17A0  0008               	return
  7220     17A1                     __end_of___awmod:
  7221                           
  7222                           	psect	text16
  7223     0818                     __ptext16:	
  7224 ;; *************** function ___awdiv *****************
  7225 ;; Defined at:
  7226 ;;		line 5 in file "C:\Program Files\Microchip\xc8\v2.46\pic\sources\c99\common\awdiv.c"
  7227 ;; Parameters:    Size  Location     Type
  7228 ;;  divisor         2    2[COMMON] int 
  7229 ;;  dividend        2    4[COMMON] int 
  7230 ;; Auto vars:     Size  Location     Type
  7231 ;;  quotient        2    2[BANK0 ] int 
  7232 ;;  sign            1    1[BANK0 ] unsigned char 
  7233 ;;  counter         1    0[BANK0 ] unsigned char 
  7234 ;; Return value:  Size  Location     Type
  7235 ;;                  2    2[COMMON] int 
  7236 ;; Registers used:
  7237 ;;		wreg, status,2, status,0, btemp+1
  7238 ;; Tracked objects:
  7239 ;;		On entry : 0/0
  7240 ;;		On exit  : 0/0
  7241 ;;		Unchanged: 0/0
  7242 ;; Data sizes:     COMMON   BANK0   BANK1   BANK3   BANK2
  7243 ;;      Params:         4       0       0       0       0
  7244 ;;      Locals:         0       4       0       0       0
  7245 ;;      Temps:          0       0       0       0       0
  7246 ;;      Totals:         4       4       0       0       0
  7247 ;;Total ram usage:        8 bytes
  7248 ;; Hardware stack levels used: 1
  7249 ;; Hardware stack levels required when called: 1
  7250 ;; This function calls:
  7251 ;;		Nothing
  7252 ;; This function is called by:
  7253 ;;		_run_program
  7254 ;; This function uses a non-reentrant model
  7255 ;;
  7256                           
  7257     0818                     ___awdiv:	
  7258                           ;psect for function ___awdiv
  7259                           
  7260     0818                     l3923:	
  7261                           ;incstack = 0
  7262                           ; Regs used in ___awdiv: [wreg+status,2+status,0+btemp+1]
  7263                           
  7264     0818  1283               	bcf	3,5	;RP0=0, select bank0
  7265     0819  1303               	bcf	3,6	;RP1=0, select bank0
  7266     081A  01A1               	clrf	___awdiv@sign
  7267     081B                     l3925:
  7268     081B  1FF3               	btfss	___awdiv@divisor+1,7
  7269     081C  281E               	goto	u5351
  7270     081D  281F               	goto	u5350
  7271     081E                     u5351:
  7272     081E  2826               	goto	l3931
  7273     081F                     u5350:
  7274     081F                     l3927:
  7275     081F  09F2               	comf	___awdiv@divisor,f
  7276     0820  09F3               	comf	___awdiv@divisor+1,f
  7277     0821  0AF2               	incf	___awdiv@divisor,f
  7278     0822  1903               	skipnz
  7279     0823  0AF3               	incf	___awdiv@divisor+1,f
  7280     0824                     l3929:
  7281     0824  01A1               	clrf	___awdiv@sign
  7282     0825  0AA1               	incf	___awdiv@sign,f
  7283     0826                     l3931:
  7284     0826  1FF5               	btfss	___awdiv@dividend+1,7
  7285     0827  2829               	goto	u5361
  7286     0828  282A               	goto	u5360
  7287     0829                     u5361:
  7288     0829  2833               	goto	l3937
  7289     082A                     u5360:
  7290     082A                     l3933:
  7291     082A  09F4               	comf	___awdiv@dividend,f
  7292     082B  09F5               	comf	___awdiv@dividend+1,f
  7293     082C  0AF4               	incf	___awdiv@dividend,f
  7294     082D  1903               	skipnz
  7295     082E  0AF5               	incf	___awdiv@dividend+1,f
  7296     082F                     l3935:
  7297     082F  3001               	movlw	1
  7298     0830  00FF               	movwf	btemp+1
  7299     0831  087F               	movf	btemp+1,w
  7300     0832  06A1               	xorwf	___awdiv@sign,f
  7301     0833                     l3937:
  7302     0833  01A2               	clrf	___awdiv@quotient
  7303     0834  01A3               	clrf	___awdiv@quotient+1
  7304     0835                     l3939:
  7305     0835  0872               	movf	___awdiv@divisor,w
  7306     0836  0473               	iorwf	___awdiv@divisor+1,w
  7307     0837  1903               	btfsc	3,2
  7308     0838  283A               	goto	u5371
  7309     0839  283B               	goto	u5370
  7310     083A                     u5371:
  7311     083A  2872               	goto	l3959
  7312     083B                     u5370:
  7313     083B                     l3941:
  7314     083B  01A0               	clrf	___awdiv@counter
  7315     083C  0AA0               	incf	___awdiv@counter,f
  7316     083D  2849               	goto	l3947
  7317     083E                     l3943:
  7318     083E  3001               	movlw	1
  7319     083F                     u5385:
  7320     083F  1003               	clrc
  7321     0840  0DF2               	rlf	___awdiv@divisor,f
  7322     0841  0DF3               	rlf	___awdiv@divisor+1,f
  7323     0842  3EFF               	addlw	-1
  7324     0843  1D03               	skipz
  7325     0844  283F               	goto	u5385
  7326     0845                     l3945:
  7327     0845  3001               	movlw	1
  7328     0846  00FF               	movwf	btemp+1
  7329     0847  087F               	movf	btemp+1,w
  7330     0848  07A0               	addwf	___awdiv@counter,f
  7331     0849                     l3947:
  7332     0849  1FF3               	btfss	___awdiv@divisor+1,7
  7333     084A  284C               	goto	u5391
  7334     084B  284D               	goto	u5390
  7335     084C                     u5391:
  7336     084C  283E               	goto	l3943
  7337     084D                     u5390:
  7338     084D                     l3949:
  7339     084D  3001               	movlw	1
  7340     084E                     u5405:
  7341     084E  1003               	clrc
  7342     084F  0DA2               	rlf	___awdiv@quotient,f
  7343     0850  0DA3               	rlf	___awdiv@quotient+1,f
  7344     0851  3EFF               	addlw	-1
  7345     0852  1D03               	skipz
  7346     0853  284E               	goto	u5405
  7347     0854  0873               	movf	___awdiv@divisor+1,w
  7348     0855  0275               	subwf	___awdiv@dividend+1,w
  7349     0856  1D03               	skipz
  7350     0857  285A               	goto	u5415
  7351     0858  0872               	movf	___awdiv@divisor,w
  7352     0859  0274               	subwf	___awdiv@dividend,w
  7353     085A                     u5415:
  7354     085A  1C03               	skipc
  7355     085B  285D               	goto	u5411
  7356     085C  285E               	goto	u5410
  7357     085D                     u5411:
  7358     085D  2865               	goto	l3955
  7359     085E                     u5410:
  7360     085E                     l3951:
  7361     085E  0872               	movf	___awdiv@divisor,w
  7362     085F  02F4               	subwf	___awdiv@dividend,f
  7363     0860  0873               	movf	___awdiv@divisor+1,w
  7364     0861  1C03               	skipc
  7365     0862  03F5               	decf	___awdiv@dividend+1,f
  7366     0863  02F5               	subwf	___awdiv@dividend+1,f
  7367     0864                     l3953:
  7368     0864  1422               	bsf	___awdiv@quotient,0
  7369     0865                     l3955:
  7370     0865  3001               	movlw	1
  7371     0866                     u5425:
  7372     0866  1003               	clrc
  7373     0867  0CF3               	rrf	___awdiv@divisor+1,f
  7374     0868  0CF2               	rrf	___awdiv@divisor,f
  7375     0869  3EFF               	addlw	-1
  7376     086A  1D03               	skipz
  7377     086B  2866               	goto	u5425
  7378     086C                     l3957:
  7379     086C  3001               	movlw	1
  7380     086D  02A0               	subwf	___awdiv@counter,f
  7381     086E  1D03               	btfss	3,2
  7382     086F  2871               	goto	u5431
  7383     0870  2872               	goto	u5430
  7384     0871                     u5431:
  7385     0871  284D               	goto	l3949
  7386     0872                     u5430:
  7387     0872                     l3959:
  7388     0872  0821               	movf	___awdiv@sign,w
  7389     0873  1903               	btfsc	3,2
  7390     0874  2876               	goto	u5441
  7391     0875  2877               	goto	u5440
  7392     0876                     u5441:
  7393     0876  287C               	goto	l3963
  7394     0877                     u5440:
  7395     0877                     l3961:
  7396     0877  09A2               	comf	___awdiv@quotient,f
  7397     0878  09A3               	comf	___awdiv@quotient+1,f
  7398     0879  0AA2               	incf	___awdiv@quotient,f
  7399     087A  1903               	skipnz
  7400     087B  0AA3               	incf	___awdiv@quotient+1,f
  7401     087C                     l3963:
  7402     087C  0823               	movf	___awdiv@quotient+1,w
  7403     087D  00F3               	movwf	?___awdiv+1
  7404     087E  0822               	movf	___awdiv@quotient,w
  7405     087F  00F2               	movwf	?___awdiv
  7406     0880                     l548:
  7407     0880  0008               	return
  7408     0881                     __end_of___awdiv:
  7409                           
  7410                           	psect	text17
  7411     17A1                     __ptext17:	
  7412 ;; *************** function _read_digital_keypad *****************
  7413 ;; Defined at:
  7414 ;;		line 19 in file "../Washing_machine_simulator-using-PIC16F877A-main/digital_keypad.c"
  7415 ;; Parameters:    Size  Location     Type
  7416 ;;  mode            1    wreg     unsigned char 
  7417 ;; Auto vars:     Size  Location     Type
  7418 ;;  mode            1    3[COMMON] unsigned char 
  7419 ;; Return value:  Size  Location     Type
  7420 ;;                  1    wreg      unsigned char 
  7421 ;; Registers used:
  7422 ;;		wreg, status,2, status,0, btemp+1
  7423 ;; Tracked objects:
  7424 ;;		On entry : 0/0
  7425 ;;		On exit  : 0/0
  7426 ;;		Unchanged: 0/0
  7427 ;; Data sizes:     COMMON   BANK0   BANK1   BANK3   BANK2
  7428 ;;      Params:         0       0       0       0       0
  7429 ;;      Locals:         1       0       0       0       0
  7430 ;;      Temps:          1       0       0       0       0
  7431 ;;      Totals:         2       0       0       0       0
  7432 ;;Total ram usage:        2 bytes
  7433 ;; Hardware stack levels used: 1
  7434 ;; Hardware stack levels required when called: 1
  7435 ;; This function calls:
  7436 ;;		Nothing
  7437 ;; This function is called by:
  7438 ;;		_main
  7439 ;; This function uses a non-reentrant model
  7440 ;;
  7441                           
  7442     17A1                     _read_digital_keypad:	
  7443                           ;psect for function _read_digital_keypad
  7444                           
  7445                           
  7446                           ;incstack = 0
  7447                           ; Regs used in _read_digital_keypad: [wreg+status,2+status,0+btemp+1]
  7448                           ;read_digital_keypad@mode stored from wreg
  7449     17A1  00F3               	movwf	read_digital_keypad@mode
  7450     17A2                     l3421:
  7451                           
  7452                           ;../Washing_machine_simulator-using-PIC16F877A-main/digital_keypad.c: 19: unsigned char 
      +                          read_digital_keypad(unsigned char mode);../Washing_machine_simulator-using-PIC16F877A-ma
      +                          in/digital_keypad.c: 20: {;../Washing_machine_simulator-using-PIC16F877A-main/digital_ke
      +                          ypad.c: 21:     static unsigned char once = 1;;../Washing_machine_simulator-using-PIC16F
      +                          877A-main/digital_keypad.c: 22:     static unsigned char pre_key;;../Washing_machine_sim
      +                          ulator-using-PIC16F877A-main/digital_keypad.c: 23:     static unsigned char longpress;
  7453     17A2  0873               	movf	read_digital_keypad@mode,w
  7454     17A3  1D03               	btfss	3,2
  7455     17A4  2FA6               	goto	u4851
  7456     17A5  2FA7               	goto	u4850
  7457     17A6                     u4851:
  7458     17A6  2FAC               	goto	l3429
  7459     17A7                     u4850:
  7460     17A7                     l3423:
  7461                           
  7462                           ;../Washing_machine_simulator-using-PIC16F877A-main/digital_keypad.c: 26:     {;../Washi
      +                          ng_machine_simulator-using-PIC16F877A-main/digital_keypad.c: 27:         return PORTB & 
      +                          0x3F;
  7463     17A7  1283               	bcf	3,5	;RP0=0, select bank0
  7464     17A8  1303               	bcf	3,6	;RP1=0, select bank0
  7465     17A9  0806               	movf	6,w	;volatile
  7466     17AA  393F               	andlw	63
  7467     17AB  2FFF               	goto	l49
  7468     17AC                     l3429:
  7469                           
  7470                           ;../Washing_machine_simulator-using-PIC16F877A-main/digital_keypad.c: 30:     {;../Washi
      +                          ng_machine_simulator-using-PIC16F877A-main/digital_keypad.c: 31:         if (((PORTB & 0
      +                          x3F) != 0x3F) && once)
  7471     17AC  303F               	movlw	63
  7472     17AD  1283               	bcf	3,5	;RP0=0, select bank0
  7473     17AE  1303               	bcf	3,6	;RP1=0, select bank0
  7474     17AF  0506               	andwf	6,w	;volatile
  7475     17B0  00F2               	movwf	??_read_digital_keypad
  7476     17B1  303F               	movlw	63
  7477     17B2  0672               	xorwf	??_read_digital_keypad,w
  7478     17B3  1903               	btfsc	3,2
  7479     17B4  2FB6               	goto	u4861
  7480     17B5  2FB7               	goto	u4860
  7481     17B6                     u4861:
  7482     17B6  2FC2               	goto	l3437
  7483     17B7                     u4860:
  7484     17B7                     l3431:
  7485     17B7  086E               	movf	read_digital_keypad@once,w
  7486     17B8  1903               	btfsc	3,2
  7487     17B9  2FBB               	goto	u4871
  7488     17BA  2FBC               	goto	u4870
  7489     17BB                     u4871:
  7490     17BB  2FC2               	goto	l3437
  7491     17BC                     u4870:
  7492     17BC                     l3433:
  7493                           
  7494                           ;../Washing_machine_simulator-using-PIC16F877A-main/digital_keypad.c: 32:         {;../W
      +                          ashing_machine_simulator-using-PIC16F877A-main/digital_keypad.c: 33:             once = 
      +                          0;
  7495     17BC  01EE               	clrf	read_digital_keypad@once
  7496                           
  7497                           ;../Washing_machine_simulator-using-PIC16F877A-main/digital_keypad.c: 34:             lo
      +                          ngpress = 0;
  7498     17BD  01EB               	clrf	read_digital_keypad@longpress
  7499     17BE                     l3435:
  7500                           
  7501                           ;../Washing_machine_simulator-using-PIC16F877A-main/digital_keypad.c: 35:             pr
      +                          e_key = PORTB & 0x3F;
  7502     17BE  0806               	movf	6,w	;volatile
  7503     17BF  393F               	andlw	63
  7504     17C0  00EC               	movwf	read_digital_keypad@pre_key
  7505                           
  7506                           ;../Washing_machine_simulator-using-PIC16F877A-main/digital_keypad.c: 37:         }
  7507     17C1  2FFE               	goto	l3467
  7508     17C2                     l3437:
  7509     17C2  086E               	movf	read_digital_keypad@once,w
  7510     17C3  1D03               	btfss	3,2
  7511     17C4  2FC6               	goto	u4881
  7512     17C5  2FC7               	goto	u4880
  7513     17C6                     u4881:
  7514     17C6  2FD9               	goto	l3445
  7515     17C7                     u4880:
  7516     17C7                     l3439:
  7517     17C7  0806               	movf	6,w	;volatile
  7518     17C8  393F               	andlw	63
  7519     17C9  066C               	xorwf	read_digital_keypad@pre_key,w
  7520     17CA  1D03               	skipz
  7521     17CB  2FCD               	goto	u4891
  7522     17CC  2FCE               	goto	u4890
  7523     17CD                     u4891:
  7524     17CD  2FD9               	goto	l3445
  7525     17CE                     u4890:
  7526     17CE                     l3441:
  7527     17CE  3032               	movlw	50
  7528     17CF  026B               	subwf	read_digital_keypad@longpress,w
  7529     17D0  1803               	skipnc
  7530     17D1  2FD3               	goto	u4901
  7531     17D2  2FD4               	goto	u4900
  7532     17D3                     u4901:
  7533     17D3  2FD9               	goto	l3445
  7534     17D4                     u4900:
  7535     17D4                     l3443:
  7536                           
  7537                           ;../Washing_machine_simulator-using-PIC16F877A-main/digital_keypad.c: 39:         {;../W
      +                          ashing_machine_simulator-using-PIC16F877A-main/digital_keypad.c: 41:             longpre
      +                          ss++;
  7538     17D4  3001               	movlw	1
  7539     17D5  00FF               	movwf	btemp+1
  7540     17D6  087F               	movf	btemp+1,w
  7541     17D7  07EB               	addwf	read_digital_keypad@longpress,f
  7542                           
  7543                           ;../Washing_machine_simulator-using-PIC16F877A-main/digital_keypad.c: 42:         }
  7544     17D8  2FFE               	goto	l3467
  7545     17D9                     l3445:
  7546     17D9  3032               	movlw	50
  7547     17DA  066B               	xorwf	read_digital_keypad@longpress,w
  7548     17DB  1D03               	btfss	3,2
  7549     17DC  2FDE               	goto	u4911
  7550     17DD  2FDF               	goto	u4910
  7551     17DE                     u4911:
  7552     17DE  2FE6               	goto	l3455
  7553     17DF                     u4910:
  7554     17DF                     l3447:
  7555                           
  7556                           ;../Washing_machine_simulator-using-PIC16F877A-main/digital_keypad.c: 44:         {;../W
      +                          ashing_machine_simulator-using-PIC16F877A-main/digital_keypad.c: 45:             longpre
      +                          ss++;
  7557     17DF  3001               	movlw	1
  7558     17E0  00FF               	movwf	btemp+1
  7559     17E1  087F               	movf	btemp+1,w
  7560     17E2  07EB               	addwf	read_digital_keypad@longpress,f
  7561     17E3                     l3449:
  7562                           
  7563                           ;../Washing_machine_simulator-using-PIC16F877A-main/digital_keypad.c: 46:             re
      +                          turn 0x80 | pre_key;
  7564     17E3  086C               	movf	read_digital_keypad@pre_key,w
  7565     17E4  3880               	iorlw	128
  7566     17E5  2FFF               	goto	l49
  7567     17E6                     l3455:
  7568     17E6  303F               	movlw	63
  7569     17E7  0506               	andwf	6,w	;volatile
  7570     17E8  00F2               	movwf	??_read_digital_keypad
  7571     17E9  303F               	movlw	63
  7572     17EA  0672               	xorwf	??_read_digital_keypad,w
  7573     17EB  1D03               	btfss	3,2
  7574     17EC  2FEE               	goto	u4921
  7575     17ED  2FEF               	goto	u4920
  7576     17EE                     u4921:
  7577     17EE  2FFE               	goto	l3467
  7578     17EF                     u4920:
  7579     17EF                     l3457:
  7580     17EF  086E               	movf	read_digital_keypad@once,w
  7581     17F0  1D03               	btfss	3,2
  7582     17F1  2FF3               	goto	u4931
  7583     17F2  2FF4               	goto	u4930
  7584     17F3                     u4931:
  7585     17F3  2FFE               	goto	l3467
  7586     17F4                     u4930:
  7587     17F4                     l3459:
  7588                           
  7589                           ;../Washing_machine_simulator-using-PIC16F877A-main/digital_keypad.c: 49:         {;../W
      +                          ashing_machine_simulator-using-PIC16F877A-main/digital_keypad.c: 50:             once = 
      +                          1;
  7590     17F4  01EE               	clrf	read_digital_keypad@once
  7591     17F5  0AEE               	incf	read_digital_keypad@once,f
  7592     17F6                     l3461:
  7593                           
  7594                           ;../Washing_machine_simulator-using-PIC16F877A-main/digital_keypad.c: 51:             if
      +                          (longpress < 50)
  7595     17F6  3032               	movlw	50
  7596     17F7  026B               	subwf	read_digital_keypad@longpress,w
  7597     17F8  1803               	skipnc
  7598     17F9  2FFB               	goto	u4941
  7599     17FA  2FFC               	goto	u4940
  7600     17FB                     u4941:
  7601     17FB  2FFE               	goto	l54
  7602     17FC                     u4940:
  7603     17FC                     l3463:
  7604                           
  7605                           ;../Washing_machine_simulator-using-PIC16F877A-main/digital_keypad.c: 52:             {;
      +                          ../Washing_machine_simulator-using-PIC16F877A-main/digital_keypad.c: 53:                
      +                           return pre_key;
  7606     17FC  086C               	movf	read_digital_keypad@pre_key,w
  7607     17FD  2FFF               	goto	l49
  7608     17FE                     l54:
  7609     17FE                     l3467:
  7610                           
  7611                           ;../Washing_machine_simulator-using-PIC16F877A-main/digital_keypad.c: 58:     return 0x3
      +                          F;
  7612     17FE  303F               	movlw	63
  7613     17FF                     l49:
  7614     17FF  0008               	return
  7615     1800                     __end_of_read_digital_keypad:
  7616                           
  7617                           	psect	text18
  7618     169D                     __ptext18:	
  7619 ;; *************** function _power_on_screen *****************
  7620 ;; Defined at:
  7621 ;;		line 141 in file "../Washing_machine_simulator-using-PIC16F877A-main/main.c"
  7622 ;; Parameters:    Size  Location     Type
  7623 ;;		None
  7624 ;; Auto vars:     Size  Location     Type
  7625 ;;  i               1    9[BANK0 ] unsigned char 
  7626 ;;  i               1    8[BANK0 ] unsigned char 
  7627 ;; Return value:  Size  Location     Type
  7628 ;;                  1    wreg      void 
  7629 ;; Registers used:
  7630 ;;		wreg, fsr0l, fsr0h, status,2, status,0, btemp+1, pclath, cstack
  7631 ;; Tracked objects:
  7632 ;;		On entry : 0/0
  7633 ;;		On exit  : 0/0
  7634 ;;		Unchanged: 0/0
  7635 ;; Data sizes:     COMMON   BANK0   BANK1   BANK3   BANK2
  7636 ;;      Params:         0       0       0       0       0
  7637 ;;      Locals:         0       2       0       0       0
  7638 ;;      Temps:          0       3       0       0       0
  7639 ;;      Totals:         0       5       0       0       0
  7640 ;;Total ram usage:        5 bytes
  7641 ;; Hardware stack levels used: 1
  7642 ;; Hardware stack levels required when called: 3
  7643 ;; This function calls:
  7644 ;;		_clcd_print
  7645 ;;		_clcd_putch
  7646 ;; This function is called by:
  7647 ;;		_main
  7648 ;; This function uses a non-reentrant model
  7649 ;;
  7650                           
  7651     169D                     _power_on_screen:	
  7652                           ;psect for function _power_on_screen
  7653                           
  7654     169D                     l3977:	
  7655                           ;incstack = 0
  7656                           ; Regs used in _power_on_screen: [wreg-fsr0h+status,2+status,0+btemp+1+pclath+cstack]
  7657                           
  7658                           
  7659                           ;../Washing_machine_simulator-using-PIC16F877A-main/main.c: 144:        for(unsigned cha
      +                          r i=0; i<16; i++)
  7660     169D  1283               	bcf	3,5	;RP0=0, select bank0
  7661     169E  1303               	bcf	3,6	;RP1=0, select bank0
  7662     169F  01A8               	clrf	power_on_screen@i
  7663     16A0                     l3983:
  7664                           
  7665                           ;../Washing_machine_simulator-using-PIC16F877A-main/main.c: 145:        {;../Washing_mac
      +                          hine_simulator-using-PIC16F877A-main/main.c: 146:             clcd_putch(0xFF, (0x80 + i
      +                          ));
  7666     16A0  0828               	movf	power_on_screen@i,w
  7667     16A1  3E80               	addlw	128
  7668     16A2  00F8               	movwf	clcd_putch@addr
  7669     16A3  30FF               	movlw	255
  7670     16A4  120A  158A  2003  160A  118A  	fcall	_clcd_putch
  7671     16A9                     l3985:
  7672                           
  7673                           ;../Washing_machine_simulator-using-PIC16F877A-main/main.c: 147:        }
  7674     16A9  3001               	movlw	1
  7675     16AA  00FF               	movwf	btemp+1
  7676     16AB  087F               	movf	btemp+1,w
  7677     16AC  1283               	bcf	3,5	;RP0=0, select bank0
  7678     16AD  1303               	bcf	3,6	;RP1=0, select bank0
  7679     16AE  07A8               	addwf	power_on_screen@i,f
  7680     16AF                     l3987:
  7681     16AF  3010               	movlw	16
  7682     16B0  0228               	subwf	power_on_screen@i,w
  7683     16B1  1C03               	skipc
  7684     16B2  2EB4               	goto	u5451
  7685     16B3  2EB5               	goto	u5450
  7686     16B4                     u5451:
  7687     16B4  2EA0               	goto	l3983
  7688     16B5                     u5450:
  7689     16B5                     l3989:
  7690                           
  7691                           ;../Washing_machine_simulator-using-PIC16F877A-main/main.c: 148:        clcd_print("  PO
      +                          WERING ON   ",(0xC0 + 0));
  7692     16B5  3011               	movlw	low (STR_24| (0+32768))
  7693     16B6  00F6               	movwf	clcd_print@str
  7694     16B7  3090               	movlw	high (STR_24| (0+32768))
  7695     16B8  00F7               	movwf	clcd_print@str+1
  7696     16B9  30C0               	movlw	192
  7697     16BA  00F8               	movwf	clcd_print@addr
  7698     16BB  160A  118A  25F2  160A  118A  	fcall	_clcd_print
  7699                           
  7700                           ;../Washing_machine_simulator-using-PIC16F877A-main/main.c: 149:        clcd_print(" WAS
      +                          HING MACHINE",(0x90 + 0));
  7701     16C0  3033               	movlw	low (STR_25| (0+32768))
  7702     16C1  00F6               	movwf	clcd_print@str
  7703     16C2  3090               	movlw	high (STR_25| (0+32768))
  7704     16C3  00F7               	movwf	clcd_print@str+1
  7705     16C4  3090               	movlw	144
  7706     16C5  00F8               	movwf	clcd_print@addr
  7707     16C6  160A  118A  25F2  160A  118A  	fcall	_clcd_print
  7708     16CB                     l3991:
  7709                           
  7710                           ;../Washing_machine_simulator-using-PIC16F877A-main/main.c: 152:        for(unsigned cha
      +                          r i=0; i<16; i++)
  7711     16CB  1283               	bcf	3,5	;RP0=0, select bank0
  7712     16CC  1303               	bcf	3,6	;RP1=0, select bank0
  7713     16CD  01A9               	clrf	power_on_screen@i_166
  7714     16CE                     l3997:
  7715                           
  7716                           ;../Washing_machine_simulator-using-PIC16F877A-main/main.c: 153:        {;../Washing_mac
      +                          hine_simulator-using-PIC16F877A-main/main.c: 154:          clcd_putch(0xFF, (0xD0 + i));
  7717     16CE  0829               	movf	power_on_screen@i_166,w
  7718     16CF  3ED0               	addlw	208
  7719     16D0  00F8               	movwf	clcd_putch@addr
  7720     16D1  30FF               	movlw	255
  7721     16D2  120A  158A  2003  160A  118A  	fcall	_clcd_putch
  7722     16D7                     l3999:
  7723                           
  7724                           ;../Washing_machine_simulator-using-PIC16F877A-main/main.c: 155:        }
  7725     16D7  3001               	movlw	1
  7726     16D8  00FF               	movwf	btemp+1
  7727     16D9  087F               	movf	btemp+1,w
  7728     16DA  1283               	bcf	3,5	;RP0=0, select bank0
  7729     16DB  1303               	bcf	3,6	;RP1=0, select bank0
  7730     16DC  07A9               	addwf	power_on_screen@i_166,f
  7731     16DD                     l4001:
  7732     16DD  3010               	movlw	16
  7733     16DE  0229               	subwf	power_on_screen@i_166,w
  7734     16DF  1C03               	skipc
  7735     16E0  2EE2               	goto	u5461
  7736     16E1  2EE3               	goto	u5460
  7737     16E2                     u5461:
  7738     16E2  2ECE               	goto	l3997
  7739     16E3                     u5460:
  7740     16E3                     l4003:
  7741                           
  7742                           ;../Washing_machine_simulator-using-PIC16F877A-main/main.c: 156:        _delay((unsigned
      +                           long)((3000)*(20000000/4000.0)));
  7743     16E3  304D               	movlw	77
  7744     16E4  1283               	bcf	3,5	;RP0=0, select bank0
  7745     16E5  1303               	bcf	3,6	;RP1=0, select bank0
  7746     16E6  00A7               	movwf	??_power_on_screen+2
  7747     16E7  3019               	movlw	25
  7748     16E8  00A6               	movwf	??_power_on_screen+1
  7749     16E9  304F               	movlw	79
  7750     16EA  00A5               	movwf	??_power_on_screen
  7751     16EB                     u5837:
  7752     16EB  0BA5               	decfsz	??_power_on_screen,f
  7753     16EC  2EEB               	goto	u5837
  7754     16ED  0BA6               	decfsz	??_power_on_screen+1,f
  7755     16EE  2EEB               	goto	u5837
  7756     16EF  0BA7               	decfsz	??_power_on_screen+2,f
  7757     16F0  2EEB               	goto	u5837
  7758     16F1                     l186:
  7759     16F1  0008               	return
  7760     16F2                     __end_of_power_on_screen:
  7761                           
  7762                           	psect	text19
  7763     0803                     __ptext19:	
  7764 ;; *************** function _clcd_putch *****************
  7765 ;; Defined at:
  7766 ;;		line 54 in file "../Washing_machine_simulator-using-PIC16F877A-main/clcd.c"
  7767 ;; Parameters:    Size  Location     Type
  7768 ;;  data            1    wreg     const unsigned char 
  7769 ;;  addr            1    8[COMMON] unsigned char 
  7770 ;; Auto vars:     Size  Location     Type
  7771 ;;  data            1    4[BANK0 ] const unsigned char 
  7772 ;; Return value:  Size  Location     Type
  7773 ;;                  1    wreg      void 
  7774 ;; Registers used:
  7775 ;;		wreg, status,2, status,0, pclath, cstack
  7776 ;; Tracked objects:
  7777 ;;		On entry : 0/0
  7778 ;;		On exit  : 0/0
  7779 ;;		Unchanged: 0/0
  7780 ;; Data sizes:     COMMON   BANK0   BANK1   BANK3   BANK2
  7781 ;;      Params:         1       0       0       0       0
  7782 ;;      Locals:         0       1       0       0       0
  7783 ;;      Temps:          0       0       0       0       0
  7784 ;;      Totals:         1       1       0       0       0
  7785 ;;Total ram usage:        2 bytes
  7786 ;; Hardware stack levels used: 1
  7787 ;; Hardware stack levels required when called: 2
  7788 ;; This function calls:
  7789 ;;		_clcd_write
  7790 ;; This function is called by:
  7791 ;;		_power_on_screen
  7792 ;;		_washing_program_display
  7793 ;;		_water_level_display
  7794 ;;		_run_program
  7795 ;; This function uses a non-reentrant model
  7796 ;;
  7797                           
  7798     0803                     _clcd_putch:	
  7799                           ;psect for function _clcd_putch
  7800                           
  7801                           
  7802                           ;incstack = 0
  7803                           ; Regs used in _clcd_putch: [wreg+status,2+status,0+pclath+cstack]
  7804                           ;clcd_putch@data stored from wreg
  7805     0803  1283               	bcf	3,5	;RP0=0, select bank0
  7806     0804  1303               	bcf	3,6	;RP1=0, select bank0
  7807     0805  00A4               	movwf	clcd_putch@data
  7808     0806                     l3897:
  7809                           
  7810                           ;../Washing_machine_simulator-using-PIC16F877A-main/clcd.c: 54: void clcd_putch(const ch
      +                          ar data, unsigned char addr);../Washing_machine_simulator-using-PIC16F877A-main/clcd.c: 
      +                          55: {;../Washing_machine_simulator-using-PIC16F877A-main/clcd.c: 56:     clcd_write(addr
      +                          , 0);
  7811     0806  01F2               	clrf	clcd_write@mode
  7812     0807  0878               	movf	clcd_putch@addr,w
  7813     0808  160A  118A  253E  120A  158A  	fcall	_clcd_write
  7814                           
  7815                           ;../Washing_machine_simulator-using-PIC16F877A-main/clcd.c: 57:     clcd_write(data, 1);
  7816     080D  01F2               	clrf	clcd_write@mode
  7817     080E  0AF2               	incf	clcd_write@mode,f
  7818     080F  1283               	bcf	3,5	;RP0=0, select bank0
  7819     0810  1303               	bcf	3,6	;RP1=0, select bank0
  7820     0811  0824               	movf	clcd_putch@data,w
  7821     0812  160A  118A  253E  120A  158A  	fcall	_clcd_write
  7822     0817                     l26:
  7823     0817  0008               	return
  7824     0818                     __end_of_clcd_putch:
  7825                           
  7826                           	psect	text20
  7827     15F2                     __ptext20:	
  7828 ;; *************** function _clcd_print *****************
  7829 ;; Defined at:
  7830 ;;		line 60 in file "../Washing_machine_simulator-using-PIC16F877A-main/clcd.c"
  7831 ;; Parameters:    Size  Location     Type
  7832 ;;  str             2    6[COMMON] PTR const unsigned char 
  7833 ;;		 -> STR_47(14), STR_46(16), STR_45(5), STR_44(6), 
  7834 ;;		 -> STR_43(6), STR_42(6), STR_41(6), STR_40(6), 
  7835 ;;		 -> STR_39(5), STR_38(17), STR_37(5), STR_36(11), 
  7836 ;;		 -> STR_35(8), STR_34(6), STR_33(7), STR_32(17), 
  7837 ;;		 -> STR_31(5), STR_30(11), STR_29(13), STR_28(12), 
  7838 ;;		 -> STR_27(12), STR_26(16), STR_25(17), STR_24(17), 
  7839 ;;		 -> STR_23(12), STR_22(13), STR_21(13), STR_20(17), 
  7840 ;;		 -> STR_19(17), STR_18(17), STR_17(4), STR_16(5), 
  7841 ;;		 -> STR_15(7), STR_14(4), STR_13(5), STR_12(11), 
  7842 ;;		 -> STR_11(10), STR_10(9), STR_9(10), STR_8(10), 
  7843 ;;		 -> STR_7(9), STR_6(11), STR_5(11), STR_4(7), 
  7844 ;;		 -> STR_3(10), STR_2(6), STR_1(6), 
  7845 ;;  addr            1    8[COMMON] unsigned char 
  7846 ;; Auto vars:     Size  Location     Type
  7847 ;;		None
  7848 ;; Return value:  Size  Location     Type
  7849 ;;                  1    wreg      void 
  7850 ;; Registers used:
  7851 ;;		wreg, fsr0l, fsr0h, status,2, status,0, btemp+1, pclath, cstack
  7852 ;; Tracked objects:
  7853 ;;		On entry : 0/0
  7854 ;;		On exit  : 0/0
  7855 ;;		Unchanged: 0/0
  7856 ;; Data sizes:     COMMON   BANK0   BANK1   BANK3   BANK2
  7857 ;;      Params:         3       0       0       0       0
  7858 ;;      Locals:         0       0       0       0       0
  7859 ;;      Temps:          0       0       0       0       0
  7860 ;;      Totals:         3       0       0       0       0
  7861 ;;Total ram usage:        3 bytes
  7862 ;; Hardware stack levels used: 1
  7863 ;; Hardware stack levels required when called: 2
  7864 ;; This function calls:
  7865 ;;		_clcd_write
  7866 ;; This function is called by:
  7867 ;;		_main
  7868 ;;		_power_on_screen
  7869 ;;		_washing_program_display
  7870 ;;		_water_level_display
  7871 ;;		_door_status_check
  7872 ;;		_run_program
  7873 ;; This function uses a non-reentrant model
  7874 ;;
  7875                           
  7876     15F2                     _clcd_print:	
  7877                           ;psect for function _clcd_print
  7878                           
  7879     15F2                     l3877:	
  7880                           ;incstack = 0
  7881                           ; Regs used in _clcd_print: [wreg-fsr0h+status,2+status,0+btemp+1+pclath+cstack]
  7882                           
  7883                           
  7884                           ;../Washing_machine_simulator-using-PIC16F877A-main/clcd.c: 60: void clcd_print(const ch
      +                          ar *str, unsigned char addr);../Washing_machine_simulator-using-PIC16F877A-main/clcd.c: 
      +                          61: {;../Washing_machine_simulator-using-PIC16F877A-main/clcd.c: 62:     clcd_write(addr
      +                          , 0);
  7885     15F2  01F2               	clrf	clcd_write@mode
  7886     15F3  0878               	movf	clcd_print@addr,w
  7887     15F4  160A  118A  253E  160A  118A  	fcall	_clcd_write
  7888                           
  7889                           ;../Washing_machine_simulator-using-PIC16F877A-main/clcd.c: 64:     while (*str != '\0')
  7890     15F9  2E10               	goto	l3883
  7891     15FA                     l3879:
  7892                           
  7893                           ;../Washing_machine_simulator-using-PIC16F877A-main/clcd.c: 65:     {;../Washing_machine
      +                          _simulator-using-PIC16F877A-main/clcd.c: 66:         clcd_write(*str, 1);
  7894     15FA  01F2               	clrf	clcd_write@mode
  7895     15FB  0AF2               	incf	clcd_write@mode,f
  7896     15FC  0877               	movf	clcd_print@str+1,w
  7897     15FD  00FF               	movwf	btemp+1
  7898     15FE  0876               	movf	clcd_print@str,w
  7899     15FF  0084               	movwf	4
  7900     1600  160A  118A  219C  160A  118A  	fcall	stringtab
  7901     1605  160A  118A  253E  160A  118A  	fcall	_clcd_write
  7902     160A                     l3881:
  7903                           
  7904                           ;../Washing_machine_simulator-using-PIC16F877A-main/clcd.c: 67:         str++;
  7905     160A  3001               	movlw	1
  7906     160B  07F6               	addwf	clcd_print@str,f
  7907     160C  1803               	skipnc
  7908     160D  0AF7               	incf	clcd_print@str+1,f
  7909     160E  3000               	movlw	0
  7910     160F  07F7               	addwf	clcd_print@str+1,f
  7911     1610                     l3883:
  7912                           
  7913                           ;../Washing_machine_simulator-using-PIC16F877A-main/clcd.c: 64:     while (*str != '\0')
  7914     1610  0877               	movf	clcd_print@str+1,w
  7915     1611  1283               	bcf	3,5	;RP0=0, select bank0
  7916     1612  1303               	bcf	3,6	;RP1=0, select bank0
  7917     1613  00FF               	movwf	btemp+1
  7918     1614  0876               	movf	clcd_print@str,w
  7919     1615  0084               	movwf	4
  7920     1616  160A  118A  219C  160A  118A  	fcall	stringtab
  7921     161B  3A00               	xorlw	0
  7922     161C  1D03               	skipz
  7923     161D  2E1F               	goto	u5321
  7924     161E  2E20               	goto	u5320
  7925     161F                     u5321:
  7926     161F  2DFA               	goto	l3879
  7927     1620                     u5320:
  7928     1620                     l32:
  7929     1620  0008               	return
  7930     1621                     __end_of_clcd_print:
  7931                           
  7932                           	psect	text21
  7933     07E2                     __ptext21:	
  7934 ;; *************** function _init_config *****************
  7935 ;; Defined at:
  7936 ;;		line 24 in file "../Washing_machine_simulator-using-PIC16F877A-main/main.c"
  7937 ;; Parameters:    Size  Location     Type
  7938 ;;		None
  7939 ;; Auto vars:     Size  Location     Type
  7940 ;;		None
  7941 ;; Return value:  Size  Location     Type
  7942 ;;                  1    wreg      void 
  7943 ;; Registers used:
  7944 ;;		wreg, status,2, status,0, pclath, cstack
  7945 ;; Tracked objects:
  7946 ;;		On entry : 0/0
  7947 ;;		On exit  : 0/0
  7948 ;;		Unchanged: 0/0
  7949 ;; Data sizes:     COMMON   BANK0   BANK1   BANK3   BANK2
  7950 ;;      Params:         0       0       0       0       0
  7951 ;;      Locals:         0       0       0       0       0
  7952 ;;      Temps:          0       0       0       0       0
  7953 ;;      Totals:         0       0       0       0       0
  7954 ;;Total ram usage:        0 bytes
  7955 ;; Hardware stack levels used: 1
  7956 ;; Hardware stack levels required when called: 4
  7957 ;; This function calls:
  7958 ;;		_init_clcd
  7959 ;;		_init_digital_keypad
  7960 ;;		_init_timer2
  7961 ;; This function is called by:
  7962 ;;		_main
  7963 ;; This function uses a non-reentrant model
  7964 ;;
  7965                           
  7966     07E2                     _init_config:	
  7967                           ;psect for function _init_config
  7968                           
  7969     07E2                     l3967:	
  7970                           ;incstack = 0
  7971                           ; Regs used in _init_config: [wreg+status,2+status,0+pclath+cstack]
  7972                           
  7973     07E2  160A  118A  2506  120A  118A  	fcall	_init_clcd
  7974     07E7  120A  118A  27F8  120A  118A  	fcall	_init_digital_keypad
  7975     07EC  160A  118A  2511  120A  118A  	fcall	_init_timer2
  7976     07F1                     l3969:
  7977     07F1  1683               	bsf	3,5	;RP0=1, select bank1
  7978     07F2  1303               	bcf	3,6	;RP1=0, select bank1
  7979     07F3  1107               	bcf	7,2	;volatile
  7980     07F4                     l3971:
  7981     07F4  1087               	bcf	7,1	;volatile
  7982     07F5                     l3973:
  7983                           
  7984                           ;../Washing_machine_simulator-using-PIC16F877A-main/main.c: 46:        PEIE = 1;
  7985     07F5  170B               	bsf	11,6	;volatile
  7986     07F6                     l3975:
  7987                           
  7988                           ;../Washing_machine_simulator-using-PIC16F877A-main/main.c: 47:        GIE = 1;
  7989     07F6  178B               	bsf	11,7	;volatile
  7990     07F7                     l145:
  7991     07F7  0008               	return
  7992     07F8                     __end_of_init_config:
  7993                           
  7994                           	psect	text22
  7995     1511                     __ptext22:	
  7996 ;; *************** function _init_timer2 *****************
  7997 ;; Defined at:
  7998 ;;		line 12 in file "../Washing_machine_simulator-using-PIC16F877A-main/timers.c"
  7999 ;; Parameters:    Size  Location     Type
  8000 ;;		None
  8001 ;; Auto vars:     Size  Location     Type
  8002 ;;		None
  8003 ;; Return value:  Size  Location     Type
  8004 ;;                  1    wreg      void 
  8005 ;; Registers used:
  8006 ;;		wreg
  8007 ;; Tracked objects:
  8008 ;;		On entry : 0/0
  8009 ;;		On exit  : 0/0
  8010 ;;		Unchanged: 0/0
  8011 ;; Data sizes:     COMMON   BANK0   BANK1   BANK3   BANK2
  8012 ;;      Params:         0       0       0       0       0
  8013 ;;      Locals:         0       0       0       0       0
  8014 ;;      Temps:          0       0       0       0       0
  8015 ;;      Totals:         0       0       0       0       0
  8016 ;;Total ram usage:        0 bytes
  8017 ;; Hardware stack levels used: 1
  8018 ;; Hardware stack levels required when called: 1
  8019 ;; This function calls:
  8020 ;;		Nothing
  8021 ;; This function is called by:
  8022 ;;		_init_config
  8023 ;; This function uses a non-reentrant model
  8024 ;;
  8025                           
  8026     1511                     _init_timer2:	
  8027                           ;psect for function _init_timer2
  8028                           
  8029     1511                     l3039:	
  8030                           ;incstack = 0
  8031                           ; Regs used in _init_timer2: [wreg]
  8032                           
  8033                           
  8034                           ;../Washing_machine_simulator-using-PIC16F877A-main/timers.c: 15:     T2CKPS0 = 1;
  8035     1511  1283               	bcf	3,5	;RP0=0, select bank0
  8036     1512  1303               	bcf	3,6	;RP1=0, select bank0
  8037     1513  1412               	bsf	18,0	;volatile
  8038                           
  8039                           ;../Washing_machine_simulator-using-PIC16F877A-main/timers.c: 16:     T2CKPS1 = 1;
  8040     1514  1492               	bsf	18,1	;volatile
  8041     1515                     l3041:
  8042                           
  8043                           ;../Washing_machine_simulator-using-PIC16F877A-main/timers.c: 19:     PR2 = 250;
  8044     1515  30FA               	movlw	250
  8045     1516  1683               	bsf	3,5	;RP0=1, select bank1
  8046     1517  1303               	bcf	3,6	;RP1=0, select bank1
  8047     1518  0092               	movwf	18	;volatile
  8048     1519                     l3043:
  8049                           
  8050                           ;../Washing_machine_simulator-using-PIC16F877A-main/timers.c: 22:     TMR2IE = 1;
  8051     1519  148C               	bsf	12,1	;volatile
  8052     151A                     l3045:
  8053                           
  8054                           ;../Washing_machine_simulator-using-PIC16F877A-main/timers.c: 25:     TMR2ON = 0;
  8055     151A  1283               	bcf	3,5	;RP0=0, select bank0
  8056     151B  1303               	bcf	3,6	;RP1=0, select bank0
  8057     151C  1112               	bcf	18,2	;volatile
  8058     151D                     l309:
  8059     151D  0008               	return
  8060     151E                     __end_of_init_timer2:
  8061                           
  8062                           	psect	text23
  8063     07F8                     __ptext23:	
  8064 ;; *************** function _init_digital_keypad *****************
  8065 ;; Defined at:
  8066 ;;		line 12 in file "../Washing_machine_simulator-using-PIC16F877A-main/digital_keypad.c"
  8067 ;; Parameters:    Size  Location     Type
  8068 ;;		None
  8069 ;; Auto vars:     Size  Location     Type
  8070 ;;		None
  8071 ;; Return value:  Size  Location     Type
  8072 ;;                  1    wreg      void 
  8073 ;; Registers used:
  8074 ;;		wreg, status,2
  8075 ;; Tracked objects:
  8076 ;;		On entry : 0/0
  8077 ;;		On exit  : 0/0
  8078 ;;		Unchanged: 0/0
  8079 ;; Data sizes:     COMMON   BANK0   BANK1   BANK3   BANK2
  8080 ;;      Params:         0       0       0       0       0
  8081 ;;      Locals:         0       0       0       0       0
  8082 ;;      Temps:          0       0       0       0       0
  8083 ;;      Totals:         0       0       0       0       0
  8084 ;;Total ram usage:        0 bytes
  8085 ;; Hardware stack levels used: 1
  8086 ;; Hardware stack levels required when called: 1
  8087 ;; This function calls:
  8088 ;;		Nothing
  8089 ;; This function is called by:
  8090 ;;		_init_config
  8091 ;; This function uses a non-reentrant model
  8092 ;;
  8093                           
  8094     07F8                     _init_digital_keypad:	
  8095                           ;psect for function _init_digital_keypad
  8096                           
  8097     07F8                     l3037:	
  8098                           ;incstack = 0
  8099                           ; Regs used in _init_digital_keypad: [wreg+status,2]
  8100                           
  8101                           
  8102                           ;../Washing_machine_simulator-using-PIC16F877A-main/digital_keypad.c: 15:     TRISB = TR
      +                          ISB | 0x3F;
  8103     07F8  1683               	bsf	3,5	;RP0=1, select bank1
  8104     07F9  1303               	bcf	3,6	;RP1=0, select bank1
  8105     07FA  0806               	movf	6,w	;volatile
  8106     07FB  383F               	iorlw	63
  8107     07FC  0086               	movwf	6	;volatile
  8108     07FD                     l39:
  8109     07FD  0008               	return
  8110     07FE                     __end_of_init_digital_keypad:
  8111                           
  8112                           	psect	text24
  8113     1506                     __ptext24:	
  8114 ;; *************** function _init_clcd *****************
  8115 ;; Defined at:
  8116 ;;		line 42 in file "../Washing_machine_simulator-using-PIC16F877A-main/clcd.c"
  8117 ;; Parameters:    Size  Location     Type
  8118 ;;		None
  8119 ;; Auto vars:     Size  Location     Type
  8120 ;;		None
  8121 ;; Return value:  Size  Location     Type
  8122 ;;                  1    wreg      void 
  8123 ;; Registers used:
  8124 ;;		wreg, status,2, status,0, pclath, cstack
  8125 ;; Tracked objects:
  8126 ;;		On entry : 0/0
  8127 ;;		On exit  : 0/0
  8128 ;;		Unchanged: 0/0
  8129 ;; Data sizes:     COMMON   BANK0   BANK1   BANK3   BANK2
  8130 ;;      Params:         0       0       0       0       0
  8131 ;;      Locals:         0       0       0       0       0
  8132 ;;      Temps:          0       0       0       0       0
  8133 ;;      Totals:         0       0       0       0       0
  8134 ;;Total ram usage:        0 bytes
  8135 ;; Hardware stack levels used: 1
  8136 ;; Hardware stack levels required when called: 3
  8137 ;; This function calls:
  8138 ;;		_init_display_controller
  8139 ;; This function is called by:
  8140 ;;		_init_config
  8141 ;; This function uses a non-reentrant model
  8142 ;;
  8143                           
  8144     1506                     _init_clcd:	
  8145                           ;psect for function _init_clcd
  8146                           
  8147     1506                     l3889:	
  8148                           ;incstack = 0
  8149                           ; Regs used in _init_clcd: [wreg+status,2+status,0+pclath+cstack]
  8150                           
  8151                           
  8152                           ;../Washing_machine_simulator-using-PIC16F877A-main/clcd.c: 45:     TRISD = 0x00;
  8153     1506  1683               	bsf	3,5	;RP0=1, select bank1
  8154     1507  1303               	bcf	3,6	;RP1=0, select bank1
  8155     1508  0188               	clrf	8	;volatile
  8156     1509                     l3891:
  8157                           
  8158                           ;../Washing_machine_simulator-using-PIC16F877A-main/clcd.c: 48:     TRISE2 = 0;
  8159     1509  1109               	bcf	9,2	;volatile
  8160     150A                     l3893:
  8161                           
  8162                           ;../Washing_machine_simulator-using-PIC16F877A-main/clcd.c: 49:     TRISE1 = 0;
  8163     150A  1089               	bcf	9,1	;volatile
  8164     150B                     l3895:
  8165                           
  8166                           ;../Washing_machine_simulator-using-PIC16F877A-main/clcd.c: 51:     init_display_control
      +                          ler();
  8167     150B  160A  118A  2656  160A  118A  	fcall	_init_display_controller
  8168     1510                     l23:
  8169     1510  0008               	return
  8170     1511                     __end_of_init_clcd:
  8171                           
  8172                           	psect	text25
  8173     1656                     __ptext25:	
  8174 ;; *************** function _init_display_controller *****************
  8175 ;; Defined at:
  8176 ;;		line 24 in file "../Washing_machine_simulator-using-PIC16F877A-main/clcd.c"
  8177 ;; Parameters:    Size  Location     Type
  8178 ;;		None
  8179 ;; Auto vars:     Size  Location     Type
  8180 ;;		None
  8181 ;; Return value:  Size  Location     Type
  8182 ;;                  1    wreg      void 
  8183 ;; Registers used:
  8184 ;;		wreg, status,2, status,0, pclath, cstack
  8185 ;; Tracked objects:
  8186 ;;		On entry : 0/0
  8187 ;;		On exit  : 0/0
  8188 ;;		Unchanged: 0/0
  8189 ;; Data sizes:     COMMON   BANK0   BANK1   BANK3   BANK2
  8190 ;;      Params:         0       0       0       0       0
  8191 ;;      Locals:         0       0       0       0       0
  8192 ;;      Temps:          2       0       0       0       0
  8193 ;;      Totals:         2       0       0       0       0
  8194 ;;Total ram usage:        2 bytes
  8195 ;; Hardware stack levels used: 1
  8196 ;; Hardware stack levels required when called: 2
  8197 ;; This function calls:
  8198 ;;		_clcd_write
  8199 ;; This function is called by:
  8200 ;;		_init_clcd
  8201 ;; This function uses a non-reentrant model
  8202 ;;
  8203                           
  8204     1656                     _init_display_controller:	
  8205                           ;psect for function _init_display_controller
  8206                           
  8207     1656                     l3859:	
  8208                           ;incstack = 0
  8209                           ; Regs used in _init_display_controller: [wreg+status,2+status,0+pclath+cstack]
  8210                           
  8211                           
  8212                           ;../Washing_machine_simulator-using-PIC16F877A-main/clcd.c: 27:     _delay((unsigned lon
      +                          g)((30)*(20000000/4000.0)));
  8213     1656  30C3               	movlw	195
  8214     1657  00F7               	movwf	??_init_display_controller+1
  8215     1658  30CD               	movlw	205
  8216     1659  00F6               	movwf	??_init_display_controller
  8217     165A                     u5847:
  8218     165A  0BF6               	decfsz	??_init_display_controller,f
  8219     165B  2E5A               	goto	u5847
  8220     165C  0BF7               	decfsz	??_init_display_controller+1,f
  8221     165D  2E5A               	goto	u5847
  8222     165E                     l3861:
  8223                           
  8224                           ;../Washing_machine_simulator-using-PIC16F877A-main/clcd.c: 30:     clcd_write(0x33, 0);
  8225     165E  01F2               	clrf	clcd_write@mode
  8226     165F  3033               	movlw	51
  8227     1660  160A  118A  253E  160A  118A  	fcall	_clcd_write
  8228     1665                     l3863:
  8229                           
  8230                           ;../Washing_machine_simulator-using-PIC16F877A-main/clcd.c: 31:     _delay((unsigned lon
      +                          g)((4100)*(20000000/4000000.0)));
  8231     1665  301B               	movlw	27
  8232     1666  00F7               	movwf	??_init_display_controller+1
  8233     1667  309E               	movlw	158
  8234     1668  00F6               	movwf	??_init_display_controller
  8235     1669                     u5857:
  8236     1669  0BF6               	decfsz	??_init_display_controller,f
  8237     166A  2E69               	goto	u5857
  8238     166B  0BF7               	decfsz	??_init_display_controller+1,f
  8239     166C  2E69               	goto	u5857
  8240     166D  0000               	nop
  8241                           
  8242                           ;../Washing_machine_simulator-using-PIC16F877A-main/clcd.c: 32:     clcd_write(0x33, 0);
  8243     166E  01F2               	clrf	clcd_write@mode
  8244     166F  3033               	movlw	51
  8245     1670  160A  118A  253E  160A  118A  	fcall	_clcd_write
  8246     1675                     l3865:
  8247                           
  8248                           ;../Washing_machine_simulator-using-PIC16F877A-main/clcd.c: 33:      _delay((unsigned lo
      +                          ng)((100)*(20000000/4000000.0)));
  8249     1675  30A6               	movlw	166
  8250     1676  00F6               	movwf	??_init_display_controller
  8251     1677                     u5867:
  8252     1677  0BF6               	decfsz	??_init_display_controller,f
  8253     1678  2E77               	goto	u5867
  8254     1679  0000               	nop
  8255     167A                     l3867:
  8256                           
  8257                           ;../Washing_machine_simulator-using-PIC16F877A-main/clcd.c: 34:     clcd_write(0x33, 0);
  8258     167A  01F2               	clrf	clcd_write@mode
  8259     167B  3033               	movlw	51
  8260     167C  160A  118A  253E  160A  118A  	fcall	_clcd_write
  8261     1681                     l3869:
  8262                           
  8263                           ;../Washing_machine_simulator-using-PIC16F877A-main/clcd.c: 35:     _delay((unsigned lon
      +                          g)((1)*(20000000/4000000.0)));
  8264     1681  2E82               	nop2	;2 cycle nop
  8265     1682  2E83               	nop2	;2 cycle nop
  8266     1683  0000               	nop
  8267     1684                     l3871:
  8268                           
  8269                           ;../Washing_machine_simulator-using-PIC16F877A-main/clcd.c: 36:    clcd_write(0x01, 0);
  8270     1684  01F2               	clrf	clcd_write@mode
  8271     1685  3001               	movlw	1
  8272     1686  160A  118A  253E  160A  118A  	fcall	_clcd_write
  8273     168B                     l3873:
  8274                           
  8275                           ;../Washing_machine_simulator-using-PIC16F877A-main/clcd.c: 37:     _delay((unsigned lon
      +                          g)((100)*(20000000/4000000.0)));
  8276     168B  30A6               	movlw	166
  8277     168C  00F6               	movwf	??_init_display_controller
  8278     168D                     u5877:
  8279     168D  0BF6               	decfsz	??_init_display_controller,f
  8280     168E  2E8D               	goto	u5877
  8281     168F  0000               	nop
  8282                           
  8283                           ;../Washing_machine_simulator-using-PIC16F877A-main/clcd.c: 38:     clcd_write(0x0C, 0);
  8284     1690  01F2               	clrf	clcd_write@mode
  8285     1691  300C               	movlw	12
  8286     1692  160A  118A  253E  160A  118A  	fcall	_clcd_write
  8287     1697                     l3875:
  8288                           
  8289                           ;../Washing_machine_simulator-using-PIC16F877A-main/clcd.c: 39:     _delay((unsigned lon
      +                          g)((100)*(20000000/4000000.0)));
  8290     1697  30A6               	movlw	166
  8291     1698  00F6               	movwf	??_init_display_controller
  8292     1699                     u5887:
  8293     1699  0BF6               	decfsz	??_init_display_controller,f
  8294     169A  2E99               	goto	u5887
  8295     169B  0000               	nop
  8296     169C                     l20:
  8297     169C  0008               	return
  8298     169D                     __end_of_init_display_controller:
  8299                           
  8300                           	psect	text26
  8301     153E                     __ptext26:	
  8302 ;; *************** function _clcd_write *****************
  8303 ;; Defined at:
  8304 ;;		line 12 in file "../Washing_machine_simulator-using-PIC16F877A-main/clcd.c"
  8305 ;; Parameters:    Size  Location     Type
  8306 ;;  byte            1    wreg     unsigned char 
  8307 ;;  mode            1    2[COMMON] unsigned char 
  8308 ;; Auto vars:     Size  Location     Type
  8309 ;;  byte            1    5[COMMON] unsigned char 
  8310 ;; Return value:  Size  Location     Type
  8311 ;;                  1    wreg      void 
  8312 ;; Registers used:
  8313 ;;		wreg
  8314 ;; Tracked objects:
  8315 ;;		On entry : 0/0
  8316 ;;		On exit  : 0/0
  8317 ;;		Unchanged: 0/0
  8318 ;; Data sizes:     COMMON   BANK0   BANK1   BANK3   BANK2
  8319 ;;      Params:         1       0       0       0       0
  8320 ;;      Locals:         1       0       0       0       0
  8321 ;;      Temps:          2       0       0       0       0
  8322 ;;      Totals:         4       0       0       0       0
  8323 ;;Total ram usage:        4 bytes
  8324 ;; Hardware stack levels used: 1
  8325 ;; Hardware stack levels required when called: 1
  8326 ;; This function calls:
  8327 ;;		Nothing
  8328 ;; This function is called by:
  8329 ;;		_init_display_controller
  8330 ;;		_clcd_putch
  8331 ;;		_clcd_print
  8332 ;;		_clear_screen
  8333 ;; This function uses a non-reentrant model
  8334 ;;
  8335                           
  8336     153E                     _clcd_write:	
  8337                           ;psect for function _clcd_write
  8338                           
  8339                           
  8340                           ;incstack = 0
  8341                           ; Regs used in _clcd_write: [wreg]
  8342                           ;clcd_write@byte stored from wreg
  8343     153E  00F5               	movwf	clcd_write@byte
  8344     153F                     l3851:
  8345                           
  8346                           ;../Washing_machine_simulator-using-PIC16F877A-main/clcd.c: 12:  void clcd_write(unsigne
      +                          d char byte, unsigned char mode);../Washing_machine_simulator-using-PIC16F877A-main/clcd
      +                          .c: 13: {;../Washing_machine_simulator-using-PIC16F877A-main/clcd.c: 14:     RE2 = mode;
  8347     153F  1872               	btfsc	clcd_write@mode,0
  8348     1540  2D42               	goto	u5301
  8349     1541  2D46               	goto	u5300
  8350     1542                     u5301:
  8351     1542  1283               	bcf	3,5	;RP0=0, select bank0
  8352     1543  1303               	bcf	3,6	;RP1=0, select bank0
  8353     1544  1509               	bsf	9,2	;volatile
  8354     1545  2D49               	goto	u5314
  8355     1546                     u5300:
  8356     1546  1283               	bcf	3,5	;RP0=0, select bank0
  8357     1547  1303               	bcf	3,6	;RP1=0, select bank0
  8358     1548  1109               	bcf	9,2	;volatile
  8359     1549                     u5314:
  8360     1549                     l3853:
  8361                           
  8362                           ;../Washing_machine_simulator-using-PIC16F877A-main/clcd.c: 15:     PORTD = byte;
  8363     1549  0875               	movf	clcd_write@byte,w
  8364     154A  0088               	movwf	8	;volatile
  8365     154B                     l3855:
  8366                           
  8367                           ;../Washing_machine_simulator-using-PIC16F877A-main/clcd.c: 17:     RE1 = 1;
  8368     154B  1489               	bsf	9,1	;volatile
  8369                           
  8370                           ;../Washing_machine_simulator-using-PIC16F877A-main/clcd.c: 18:     _delay((unsigned lon
      +                          g)((100)*(20000000/4000000.0)));
  8371     154C  30A6               	movlw	166
  8372     154D  00F3               	movwf	??_clcd_write
  8373     154E                     u5897:
  8374     154E  0BF3               	decfsz	??_clcd_write,f
  8375     154F  2D4E               	goto	u5897
  8376     1550  0000               	nop
  8377     1551                     l3857:
  8378                           
  8379                           ;../Washing_machine_simulator-using-PIC16F877A-main/clcd.c: 19:     RE1 = 0;
  8380     1551  1283               	bcf	3,5	;RP0=0, select bank0
  8381     1552  1303               	bcf	3,6	;RP1=0, select bank0
  8382     1553  1089               	bcf	9,1	;volatile
  8383                           
  8384                           ;../Washing_machine_simulator-using-PIC16F877A-main/clcd.c: 21:     _delay((unsigned lon
      +                          g)((4100)*(20000000/4000000.0)));
  8385     1554  301B               	movlw	27
  8386     1555  00F4               	movwf	??_clcd_write+1
  8387     1556  309E               	movlw	158
  8388     1557  00F3               	movwf	??_clcd_write
  8389     1558                     u5907:
  8390     1558  0BF3               	decfsz	??_clcd_write,f
  8391     1559  2D58               	goto	u5907
  8392     155A  0BF4               	decfsz	??_clcd_write+1,f
  8393     155B  2D58               	goto	u5907
  8394     155C  0000               	nop
  8395     155D                     l17:
  8396     155D  0008               	return
  8397     155E                     __end_of_clcd_write:
  8398                           
  8399                           	psect	text27
  8400     1621                     __ptext27:	
  8401 ;; *************** function _isr *****************
  8402 ;; Defined at:
  8403 ;;		line 12 in file "../Washing_machine_simulator-using-PIC16F877A-main/isr.c"
  8404 ;; Parameters:    Size  Location     Type
  8405 ;;		None
  8406 ;; Auto vars:     Size  Location     Type
  8407 ;;		None
  8408 ;; Return value:  Size  Location     Type
  8409 ;;                  1    wreg      void 
  8410 ;; Registers used:
  8411 ;;		wreg, status,2, status,0
  8412 ;; Tracked objects:
  8413 ;;		On entry : 0/0
  8414 ;;		On exit  : 0/0
  8415 ;;		Unchanged: 0/0
  8416 ;; Data sizes:     COMMON   BANK0   BANK1   BANK3   BANK2
  8417 ;;      Params:         0       0       0       0       0
  8418 ;;      Locals:         0       0       0       0       0
  8419 ;;      Temps:          2       0       0       0       0
  8420 ;;      Totals:         2       0       0       0       0
  8421 ;;Total ram usage:        2 bytes
  8422 ;; Hardware stack levels used: 1
  8423 ;; This function calls:
  8424 ;;		Nothing
  8425 ;; This function is called by:
  8426 ;;		Interrupt level 1
  8427 ;; This function uses a non-reentrant model
  8428 ;;
  8429                           
  8430     1621                     _isr:	
  8431                           ;psect for function _isr
  8432                           
  8433     1621                     i1l2673:
  8434                           
  8435                           ;../Washing_machine_simulator-using-PIC16F877A-main/isr.c: 14:     static unsigned int c
      +                          ount = 0;;../Washing_machine_simulator-using-PIC16F877A-main/isr.c: 16:     if (TMR2IF =
      +                          = 1)
  8436     1621  1283               	bcf	3,5	;RP0=0, select bank0
  8437     1622  1303               	bcf	3,6	;RP1=0, select bank0
  8438     1623  1C8C               	btfss	12,1	;volatile
  8439     1624  2E26               	goto	u324_21
  8440     1625  2E27               	goto	u324_20
  8441     1626                     u324_21:
  8442     1626  2E4F               	goto	i1l76
  8443     1627                     u324_20:
  8444     1627                     i1l2675:
  8445                           
  8446                           ;../Washing_machine_simulator-using-PIC16F877A-main/isr.c: 17:     {;../Washing_machine_
      +                          simulator-using-PIC16F877A-main/isr.c: 18:         if (++count == 1250)
  8447     1627  3001               	movlw	1
  8448     1628  07E8               	addwf	isr@count,f
  8449     1629  1803               	skipnc
  8450     162A  0AE9               	incf	isr@count+1,f
  8451     162B  3000               	movlw	0
  8452     162C  07E9               	addwf	isr@count+1,f
  8453     162D  30E2               	movlw	226
  8454     162E  0668               	xorwf	isr@count,w
  8455     162F  3004               	movlw	4
  8456     1630  1903               	skipnz
  8457     1631  0669               	xorwf	isr@count+1,w
  8458     1632  1D03               	btfss	3,2
  8459     1633  2E35               	goto	u325_21
  8460     1634  2E36               	goto	u325_20
  8461     1635                     u325_21:
  8462     1635  2E4E               	goto	i1l2691
  8463     1636                     u325_20:
  8464     1636                     i1l2677:
  8465                           
  8466                           ;../Washing_machine_simulator-using-PIC16F877A-main/isr.c: 19:         {;../Washing_mach
      +                          ine_simulator-using-PIC16F877A-main/isr.c: 20:             count = 0;
  8467     1636  01E8               	clrf	isr@count
  8468     1637  01E9               	clrf	isr@count+1
  8469     1638                     i1l2679:
  8470                           
  8471                           ;../Washing_machine_simulator-using-PIC16F877A-main/isr.c: 21:             if(sec > 0)
  8472     1638  087B               	movf	_sec,w
  8473     1639  1903               	btfsc	3,2
  8474     163A  2E3C               	goto	u326_21
  8475     163B  2E3D               	goto	u326_20
  8476     163C                     u326_21:
  8477     163C  2E40               	goto	i1l2683
  8478     163D                     u326_20:
  8479     163D                     i1l2681:
  8480                           
  8481                           ;../Washing_machine_simulator-using-PIC16F877A-main/isr.c: 22:             {;../Washing_
      +                          machine_simulator-using-PIC16F877A-main/isr.c: 23:                 sec--;
  8482     163D  3001               	movlw	1
  8483     163E  02FB               	subwf	_sec,f
  8484                           
  8485                           ;../Washing_machine_simulator-using-PIC16F877A-main/isr.c: 24:             }
  8486     163F  2E4E               	goto	i1l2691
  8487     1640                     i1l2683:
  8488     1640  087B               	movf	_sec,w
  8489     1641  1D03               	btfss	3,2
  8490     1642  2E44               	goto	u327_21
  8491     1643  2E45               	goto	u327_20
  8492     1644                     u327_21:
  8493     1644  2E4E               	goto	i1l2691
  8494     1645                     u327_20:
  8495     1645                     i1l2685:
  8496     1645  086A               	movf	_min,w
  8497     1646  1903               	btfsc	3,2
  8498     1647  2E49               	goto	u328_21
  8499     1648  2E4A               	goto	u328_20
  8500     1649                     u328_21:
  8501     1649  2E4E               	goto	i1l2691
  8502     164A                     u328_20:
  8503     164A                     i1l2687:
  8504                           
  8505                           ;../Washing_machine_simulator-using-PIC16F877A-main/isr.c: 26:             {;../Washing_
      +                          machine_simulator-using-PIC16F877A-main/isr.c: 27:                 min--;
  8506     164A  3001               	movlw	1
  8507     164B  02EA               	subwf	_min,f
  8508     164C                     i1l2689:
  8509                           
  8510                           ;../Washing_machine_simulator-using-PIC16F877A-main/isr.c: 28:                 sec = 59;
  8511     164C  303B               	movlw	59
  8512     164D  00FB               	movwf	_sec
  8513     164E                     i1l2691:
  8514                           
  8515                           ;../Washing_machine_simulator-using-PIC16F877A-main/isr.c: 31:         TMR2IF = 0;
  8516     164E  108C               	bcf	12,1	;volatile
  8517     164F                     i1l76:
  8518     164F  0871               	movf	??_isr+1,w
  8519     1650  008A               	movwf	10
  8520     1651  0E70               	swapf	??_isr,w
  8521     1652  0083               	movwf	3
  8522     1653  0EFE               	swapf	btemp,f
  8523     1654  0E7E               	swapf	btemp,w
  8524     1655  0009               	retfie
  8525     1656                     __end_of_isr:
  8526     007E                     btemp	set	126	;btemp
  8527     007E                     wtemp0	set	126
  8528                           
  8529                           	psect	intentry
  8530     0004                     __pintentry:	
  8531                           ;incstack = 0
  8532                           ; Regs used in _isr: [wreg+status,2+status,0]
  8533                           
  8534     0004                     interrupt_function:
  8535     007E                     saved_w	set	btemp
  8536     0004  00FE               	movwf	btemp
  8537     0005  0E03               	swapf	3,w
  8538     0006  00F0               	movwf	??_isr
  8539     0007  080A               	movf	10,w
  8540     0008  00F1               	movwf	??_isr+1
  8541     0009  160A  118A  2E21   	ljmp	_isr
  8542                           
  8543                           	psect	config
  8544                           
  8545                           ;Config register CONFIG @ 0x2007
  8546                           ;	Oscillator Selection bits
  8547                           ;	FOSC = 0x3, unprogrammed default
  8548                           ;	Watchdog Timer Enable bit
  8549                           ;	WDTE = OFF, WDT disabled
  8550                           ;	Power-up Timer Enable bit
  8551                           ;	PWRTE = 0x1, unprogrammed default
  8552                           ;	Brown-out Reset Enable bit
  8553                           ;	BOREN = 0x1, unprogrammed default
  8554                           ;	Low-Voltage (Single-Supply) In-Circuit Serial Programming Enable bit
  8555                           ;	LVP = 0x1, unprogrammed default
  8556                           ;	Data EEPROM Memory Code Protection bit
  8557                           ;	CPD = 0x1, unprogrammed default
  8558                           ;	Flash Program Memory Write Enable bits
  8559                           ;	WRT = 0x3, unprogrammed default
  8560                           ;	In-Circuit Debugger Mode bit
  8561                           ;	DEBUG = 0x1, unprogrammed default
  8562                           ;	Flash Program Memory Code Protection bit
  8563                           ;	CP = 0x1, unprogrammed default
  8564     2007                     	org	8199
  8565     2007  3FFB               	dw	16379

Data Sizes:
    Strings     412
    Constant    0
    Data        35
    BSS         18
    Persistent  2
    Stack       0

Auto Spaces:
    Space          Size  Autos    Used
    COMMON           14      9      12
    BANK0            80     64      79
    BANK1            80      5      42
    BANK3            96      0       0
    BANK2            96      0       0

Pointer List with Targets:

    clcd_print@str	PTR const unsigned char  size(2) Largest target is 17
		 -> STR_1(CODE[6]), STR_10(CODE[9]), STR_11(CODE[10]), STR_12(CODE[11]), 
		 -> STR_13(CODE[5]), STR_14(CODE[4]), STR_15(CODE[7]), STR_16(CODE[5]), 
		 -> STR_17(CODE[4]), STR_18(CODE[17]), STR_19(CODE[17]), STR_2(CODE[6]), 
		 -> STR_20(CODE[17]), STR_21(CODE[13]), STR_22(CODE[13]), STR_23(CODE[12]), 
		 -> STR_24(CODE[17]), STR_25(CODE[17]), STR_26(CODE[16]), STR_27(CODE[12]), 
		 -> STR_28(CODE[12]), STR_29(CODE[13]), STR_3(CODE[10]), STR_30(CODE[11]), 
		 -> STR_31(CODE[5]), STR_32(CODE[17]), STR_33(CODE[7]), STR_34(CODE[6]), 
		 -> STR_35(CODE[8]), STR_36(CODE[11]), STR_37(CODE[5]), STR_38(CODE[17]), 
		 -> STR_39(CODE[5]), STR_4(CODE[7]), STR_40(CODE[6]), STR_41(CODE[6]), 
		 -> STR_42(CODE[6]), STR_43(CODE[6]), STR_44(CODE[6]), STR_45(CODE[5]), 
		 -> STR_46(CODE[16]), STR_47(CODE[14]), STR_5(CODE[11]), STR_6(CODE[11]), 
		 -> STR_7(CODE[9]), STR_8(CODE[10]), STR_9(CODE[10]), 

    washing_prog	PTR unsigned char [12] size(2) Largest target is 11
		 -> STR_1(CODE[6]), STR_10(CODE[9]), STR_11(CODE[10]), STR_12(CODE[11]), 
		 -> STR_2(CODE[6]), STR_3(CODE[10]), STR_4(CODE[7]), STR_5(CODE[11]), 
		 -> STR_6(CODE[11]), STR_7(CODE[9]), STR_8(CODE[10]), STR_9(CODE[10]), 

    water_level_arr	PTR unsigned char [5] size(2) Largest target is 7
		 -> STR_13(CODE[5]), STR_14(CODE[4]), STR_15(CODE[7]), STR_16(CODE[5]), 
		 -> STR_17(CODE[4]), 


Critical Paths under _main in COMMON

    _main->_clcd_print
    _water_level_display->_clcd_print
    _water_level_display->_clcd_putch
    _washing_program_display->_clcd_print
    _washing_program_display->_clcd_putch
    _run_program->_clcd_print
    _run_program->_clcd_putch
    _door_status_check->_clcd_print
    _clear_screen->_clcd_write
    ___fltol->___xxtofl
    ___flsub->___fladd
    ___flsub->___xxtofl
    ___flmul->__Umul8_16
    ___flmul->___xxtofl
    ___flge->___xxtofl
    _power_on_screen->_clcd_print
    _power_on_screen->_clcd_putch
    _clcd_putch->___awmod
    _clcd_print->_clcd_write
    _init_clcd->_init_display_controller
    _init_display_controller->_clcd_write

Critical Paths under _isr in COMMON

    None.

Critical Paths under _main in BANK0

    _main->_run_program
    _water_level_display->_clcd_putch
    _washing_program_display->_clcd_putch
    _run_program->___flge
    ___fltol->___flmul
    ___flsub->___flmul
    ___flmul->___xxtofl
    ___flge->___flsub
    _power_on_screen->_clcd_putch
    _clcd_putch->___awdiv

Critical Paths under _isr in BANK0

    None.

Critical Paths under _main in BANK1

    None.

Critical Paths under _isr in BANK1

    None.

Critical Paths under _main in BANK3

    None.

Critical Paths under _isr in BANK3

    None.

Critical Paths under _main in BANK2

    None.

Critical Paths under _isr in BANK2

    None.

Call Graph Tables:

 ---------------------------------------------------------------------------------
 (Depth) Function   	        Calls       Base Space   Used Autos Params    Refs
 ---------------------------------------------------------------------------------
 (0) _main                                                 6     6      0   98505
                                              0 BANK1      5     5      0
                         _clcd_print
                       _clear_screen
                        _init_config
                    _power_on_screen
                _read_digital_keypad
                        _run_program
               _set_time_for_program
            _washing_program_display
                _water_level_display
 ---------------------------------------------------------------------------------
 (1) _water_level_display                                  3     3      0   15562
                                              5 BANK0      3     3      0
                         _clcd_print
                         _clcd_putch
                       _clear_screen
 ---------------------------------------------------------------------------------
 (1) _washing_program_display                              3     3      0   15562
                                              5 BANK0      3     3      0
                         _clcd_print
                         _clcd_putch
                       _clear_screen
 ---------------------------------------------------------------------------------
 (1) _set_time_for_program                                 0     0      0       0
 ---------------------------------------------------------------------------------
 (1) _run_program                                          8     8      0   38302
                                             56 BANK0      8     8      0
                            ___awdiv
                            ___awmod
                             ___flge
                            ___flmul
                            ___flsub
                            ___fltol
                             ___wmul
                           ___xxtofl
                         _clcd_print
                         _clcd_putch
                       _clear_screen
                  _door_status_check
 ---------------------------------------------------------------------------------
 (2) _door_status_check                                    0     0      0   12808
                         _clcd_print
                       _clear_screen
 ---------------------------------------------------------------------------------
 (2) _clear_screen                                         1     1      0    1144
                                              6 COMMON     1     1      0
                         _clcd_write
 ---------------------------------------------------------------------------------
 (2) ___xxtofl                                            14    10      4     926
                                              2 COMMON     4     0      4
                                              0 BANK0     10    10      0
 ---------------------------------------------------------------------------------
 (2) ___wmul                                               6     2      4     796
                                              2 COMMON     6     2      4
 ---------------------------------------------------------------------------------
 (2) ___fltol                                             10     6      4     517
                                              6 COMMON     2     2      0
                                             36 BANK0      8     4      4
                            ___flmul (ARG)
                           ___xxtofl (ARG)
 ---------------------------------------------------------------------------------
 (2) ___flsub                                              8     0      8    3367
                                             36 BANK0      8     0      8
                            ___fladd
                            ___flmul (ARG)
                           ___xxtofl (ARG)
 ---------------------------------------------------------------------------------
 (3) ___fladd                                             20    12      8    3122
                                              2 COMMON     4     4      0
                                              0 BANK0     16     8      8
 ---------------------------------------------------------------------------------
 (2) ___flmul                                             26    18      8    3713
                                             10 BANK0     26    18      8
                          __Umul8_16
                           ___xxtofl (ARG)
 ---------------------------------------------------------------------------------
 (3) __Umul8_16                                            9     7      2     980
                                              2 COMMON     4     2      2
                                              0 BANK0      5     5      0
 ---------------------------------------------------------------------------------
 (2) ___flge                                              12     4      8     446
                                             44 BANK0     12     4      8
                            ___flmul (ARG)
                            ___flsub (ARG)
                           ___xxtofl (ARG)
 ---------------------------------------------------------------------------------
 (2) ___awmod                                              6     2      4      37
                                              2 COMMON     6     2      4
 ---------------------------------------------------------------------------------
 (2) ___awdiv                                              8     4      4     130
                                              2 COMMON     4     0      4
                                              0 BANK0      4     4      0
 ---------------------------------------------------------------------------------
 (1) _read_digital_keypad                                  2     2      0      31
                                              2 COMMON     2     2      0
 ---------------------------------------------------------------------------------
 (1) _power_on_screen                                      5     5      0   14652
                                              5 BANK0      5     5      0
                         _clcd_print
                         _clcd_putch
 ---------------------------------------------------------------------------------
 (2) _clcd_putch                                           2     1      1    2712
                                              8 COMMON     1     0      1
                                              4 BANK0      1     1      0
                            ___awdiv (ARG)
                            ___awmod (ARG)
                         _clcd_write
 ---------------------------------------------------------------------------------
 (2) _clcd_print                                           3     0      3   11664
                                              6 COMMON     3     0      3
                         _clcd_write
 ---------------------------------------------------------------------------------
 (1) _init_config                                          0     0      0    1144
                          _init_clcd
                _init_digital_keypad
                        _init_timer2
 ---------------------------------------------------------------------------------
 (2) _init_timer2                                          0     0      0       0
 ---------------------------------------------------------------------------------
 (2) _init_digital_keypad                                  0     0      0       0
 ---------------------------------------------------------------------------------
 (2) _init_clcd                                            0     0      0    1144
            _init_display_controller
 ---------------------------------------------------------------------------------
 (3) _init_display_controller                              2     2      0    1144
                                              6 COMMON     2     2      0
                         _clcd_write
 ---------------------------------------------------------------------------------
 (3) _clcd_write                                           4     3      1    1144
                                              2 COMMON     4     3      1
 ---------------------------------------------------------------------------------
 Estimated maximum stack depth 3
 ---------------------------------------------------------------------------------
 (Depth) Function   	        Calls       Base Space   Used Autos Params    Refs
 ---------------------------------------------------------------------------------
 (5) _isr                                                  2     2      0       0
                                              0 COMMON     2     2      0
 ---------------------------------------------------------------------------------
 Estimated maximum stack depth 5
 ---------------------------------------------------------------------------------

 Call Graph Graphs:

 _main (ROOT)
   _clcd_print
     _clcd_write
   _clear_screen
     _clcd_write
   _init_config
     _init_clcd
       _init_display_controller
         _clcd_write
     _init_digital_keypad
     _init_timer2
   _power_on_screen
     _clcd_print
     _clcd_putch
       ___awdiv (ARG)
       ___awmod (ARG)
       _clcd_write (ARG)
   _read_digital_keypad
   _run_program
     ___awdiv
     ___awmod
     ___flge
       ___flmul (ARG)
         __Umul8_16
         ___xxtofl (ARG)
       ___flsub (ARG)
         ___fladd
         ___flmul (ARG)
         ___xxtofl (ARG)
       ___xxtofl (ARG)
     ___flmul
     ___flsub
     ___fltol
       ___flmul (ARG)
       ___xxtofl (ARG)
     ___wmul
     ___xxtofl
     _clcd_print
     _clcd_putch
     _clear_screen
     _door_status_check
       _clcd_print
       _clear_screen
   _set_time_for_program
   _washing_program_display
     _clcd_print
     _clcd_putch
     _clear_screen
   _water_level_display
     _clcd_print
     _clcd_putch
     _clear_screen

 _isr (ROOT)

 Address spaces:
Name               Size   Autos  Total    Cost      Usage
BANK3               60      0       0       9        0.0%
BITBANK3            60      0       0       8        0.0%
SFR3                 0      0       0       4        0.0%
BITSFR3              0      0       0       4        0.0%
BANK2               60      0       0      11        0.0%
BITBANK2            60      0       0      10        0.0%
SFR2                 0      0       0       5        0.0%
BITSFR2              0      0       0       5        0.0%
BANK1               50      5      2A       7       52.5%
BITBANK1            50      0       0       6        0.0%
SFR1                 0      0       0       2        0.0%
BITSFR1              0      0       0       2        0.0%
BANK0               50     40      4F       5       98.8%
BITBANK0            50      0       0       4        0.0%
SFR0                 0      0       0       1        0.0%
BITSFR0              0      0       0       1        0.0%
COMMON               E      9       C       1       85.7%
BITCOMMON            E      0       0       0        0.0%
CODE                 0      0       0       0        0.0%
DATA                 0      0      85      12        0.0%
ABS                  0      0      85       3        0.0%
NULL                 0      0       0       0        0.0%
STACK                0      0       0       2        0.0%
EEDATA             100      0       0       0        0.0%


Microchip Technology PIC Macro Assembler V2.46 build 20240104201356 
Symbol Table                                                                                   Fri Mar 22 16:40:40 2024

                              pc 0002                   clcd_print@addr 0078                               l20 169C  
                             l23 1510                               l32 1620                               l17 155D  
                             l26 0817                               l54 17FE                               l39 07FD  
                             l49 17FF                     ___awdiv@sign 0021                               fsr 0004  
            ___wmul@multiplicand 0074           water_level_display@key 0027              __Umul8_16@word_mpld 0022  
                            l208 0C71                              l145 07F7                              l161 0D4E  
                            l309 151D                              l254 0A29                              l271 1716  
                            l239 09FE                              l186 16F1                              l274 1747  
                            l179 152A                              l267 0A85                              l700 0E80  
                            l197 0B7B                              l702 0E57                              l296 03E2  
                            l561 17A0                              l721 0F73                              l811 15DF  
                            l395 15B0                              l548 0880                              l581 099C  
                            l573 0917                              l813 15F1                              l717 0F4F  
                            l709 0FFF                              l397 15C8                              l742 15A3  
                            l727 0F95                              l576 0983                              l850 07B7  
                            l739 0FFF                              l596 08E3                              l836 074C  
                            l589 08F8                              l838 07E1                              l599 08F8  
                            l792 0727                              l696 0DFB                              l849 07AB  
                            l798 0697                              _GIE 005F                              _RB0 0030  
                            _RC1 0039                              _RC2 003A                              _RE1 0049  
                            _RE2 004A                              _PR2 0092             _set_time_for_program 099D  
                            _min 006A                              _sec 007B                              _isr 1621  
                 clcd_putch@addr 0078                              fsr0 0004                   clcd_putch@data 0024  
                            indf 0000                     ___awmod@sign 0077     read_digital_keypad@longpress 006B  
                   ___flmul@aexp 0038                     ___flmul@bexp 003D                     ___flmul@sign 0037  
                   ___flmul@temp 0042                     ___flmul@prod 003E                      _run_program 003D  
                   ___fltol@exp1 0077                             l3001 0FEB                             l3011 0FFE  
                           l3003 0FEF                             l3021 15E8                             l3013 15CC  
                           l3005 0FF1                             l3023 15ED                             l3015 15CE  
                           l3007 0FF5                             l3041 1515                             l4001 16DD  
                           l3017 15D5                             l3009 0FFA                             l3201 08B3  
          ??_read_digital_keypad 0072                             l3043 1519                             l4003 16E3  
                           l3131 1749                             l3019 15D9                             l3211 08C8  
                           l3203 08B7                             l4011 0A97                             l3037 07F8  
                           l3045 151A                             l3141 175D                             l3133 174D  
                           l3301 0574                             l3221 08E8                             l3213 08D1  
                           l4101 0130                             l4013 0A9F                             l4021 0AAF  
                           l4005 0A89                             l3039 1511                             l3151 1775  
                           l3143 1763                             l3135 1752                             l3311 061B  
                           l3303 0591                             l3231 03E3                             l3223 08ED  
                           l3071 15A4                             l4111 01E6                             l4103 0150  
                           l4031 0B0E                             l4023 0ABA                             l4015 0AA3  
                           l4007 0A91                             l3161 1797                             l3153 177F  
                           l3145 1766                             l3137 1754                             l3129 1748  
                           l3321 0667                             l3313 0643                             l3305 05BC  
                           l3241 03F6                             l3233 03E8                             l3225 1580  
                           l3209 08BF                             l3081 15C4                             l3073 15A6  
                           l3401 0796                             l4121 020C                             l4105 018B  
                           l4113 01E7                             l4033 0B46                             l4025 0AC2  
                           l4017 0AA9                             l4009 0A96                             l4041 0B88  
                           l4201 0CD3                             l3163 179C                             l3155 1785  
                           l3147 176D                             l3139 1758                             l3171 092B  
                           l3331 067C                             l3323 0668                             l3315 064C  
                           l3307 05CA                             l3251 0412                             l3243 03FB  
                           l3235 03EC                             l3227 1584                             l3219 08D8  
                           l3075 15AA                             l3411 07CF                             l3403 07A1  
                           l4131 0267                             l4123 0212                             l4115 01EE  
                           l4107 01C6                             l4035 0B4C                             l4027 0AC8  
                           l4019 0AAA                             l4051 0BA0                             l4043 0B8D  
                           l4211 0CF9                             l4203 0CD7                             l3421 17A2  
                           l3157 178C                             l3149 1771                             l3181 0999  
                           l3173 0933                             l3341 06A1                             l3333 0680  
                           l3325 0671                             l3317 065A                             l3309 05F5  
                           l3261 0425                             l3253 0416                             l3245 0403  
                           l3237 03F0                             l3077 15B7                             l3413 07D4  
                           l3405 07A5                             l4141 030B                             l4125 0228  
                           l4133 0273                             l4117 01F0                             l4109 01E3  
                           l4029 0B08                             l4061 0BFE                             l4045 0B95  
                           l4053 0BA5                             l4037 0B7F                             l4221 0D1E  
                           l4213 0D01                             l4205 0CE5                             l3431 17B7  
                           l3423 17A7                             l3159 1792                             l3183 099B  
                           l3175 0937                             l3167 08F9                             l3351 06DF  
                           l3343 06AF                             l3335 0694                             l3319 0663  
                           l3327 0677                             l3271 0441                             l3263 042D  
                           l3255 041A                             l3247 0405                             l3239 03F1  
                           l3079 15BE                             l3415 07D8                             l3407 07AF  
                           l4151 035E                             l4143 0311                             l4135 0279  
                           l4127 0234                             l4119 01F2                             l4071 0045  
                           l3511 099E                             l4063 0C04                             l4055 0BB0  
                           l4047 0B99                             l4039 0B87                             l4231 0D49  
                           l4223 0D29                             l4215 0D09                             l4207 0CEB  
                           l3441 17CE                             l3433 17BC                             l3177 095B  
                           l3169 090F                             l3361 0711                             l3353 06EA  
                           l3345 06B3                             l3329 067B                             l3281 0480  
                           l3265 042F                             l3257 041B                             l3249 040D  
                           l3193 0895                             l3417 07D9                             l3409 07B9  
                           l4161 03A8                             l4153 0366                             l4145 031D  
                           l4137 02F3                             l4129 025B                             l4081 007D  
                           l4073 004D                             l3513 09A0                             l4065 0C3C  
                           l4057 0BB8                             l4049 0B9F                             l4241 0D69  
                           l4233 0D4B                             l4225 0D34                             l4217 0D0E  
                           l4209 0CF2                             l3443 17D4                             l3435 17BE  
                           l3179 095F                             l3363 0715                             l3355 06F9  
                           l3347 06CC                             l3339 069C                             l3291 0507  
                           l3283 049C                             l3275 044A                             l3267 0437  
                           l3259 0420                             l3195 08A8                             l3187 0881  
                           l4171 03D4                             l4163 03AB                             l4155 0381  
                           l4139 02FF                             l4147 0328                             l4091 00FC  
                           l4083 0098                             l4075 0052                             l3531 09C6  
                           l3523 09AA                             l3515 09A4                             l4067 0C42  
                           l4059 0BBE                             l4251 0D81                             l4235 0D4F  
                           l4219 0D13                             l4227 0D39                             l3461 17F6  
                           l3445 17D9                             l3437 17C2                             l3429 17AC  
                           l3365 0716                             l3357 0703                             l3349 06D2  
                           l3293 0515                             l3285 04C6                             l3277 0458  
                           l3269 043C                             l2901 0E66                             l2821 0DAE  
                           l2813 0DA0                             l3197 08A9                             l3189 088C  
                           l3381 0754                             l3373 072B                             l4173 03D7  
                           l4165 03B0                             l4157 039C                             l4149 0343  
                           l4093 010A                             l4085 00B3                             l4077 005D  
                           l4069 0040                             l3541 09DD                             l3525 09BB  
                           l3509 099D                             l4245 0D72                             l4237 0D58  
                           l4229 0D41                             l4181 0C7A                             l3463 17FC  
                           l3447 17DF                             l3455 17E6                             l3439 17C7  
                           l3359 0705                             l3367 071B                             l3295 0532  
                           l3287 04E2                             l3279 0465                             l2911 0E84  
                           l2903 0E6C                             l2823 0DB3                             l2831 0DC3  
                           l2815 0DA5                             l3199 08B1                             l3391 076D  
                           l3375 0730                             l4175 03D9                             l4167 03BB  
                           l4159 03A1                             l4095 010F                             l4087 00BB  
                           l4079 0072                             l3551 09F8                             l3535 09C9  
                           l3527 09BD                             l3519 09A7                             l4247 0D78  
                           l4239 0D61                             l4255 0D8A                             l4191 0CA7  
                           l4183 0C7F                             l3457 17EF                             l3449 17E3  
                           l3369 071F                             l3297 0540                             l3289 04FE  
                           l2921 0EB1                             l2913 0E89                             l2905 0E6D  
                           l2841 0DD9                             l2833 0DCB                             l2825 0DB8  
                           l2817 0DA9                             l3393 0774                             l3385 075D  
                           l3377 0734                             l4169 03C6                             l4097 011A  
                           l4089 00D6                             l3561 0A06                             l3553 09FA  
                           l3545 09E0                             l3537 09DA                             l3529 09C0  
                           l4249 0D7C                             l4257 0D99                             l4193 0CB5  
                           l4185 0C8A                             l4177 0C72                             l3459 17F4  
                           l3467 17FE                             l3299 055D                             l2931 0EC3  
                           l2923 0EB5                             l2907 0E76                             l2851 0DF0  
                           l2843 0DDD                             l2835 0DCE                             l2827 0DC0  
                           l2819 0DAD                             l3395 0778                             l3387 0760  
                           l3379 0744                             l4099 0125                             l3571 0A23  
                           l3563 0A09                             l3547 09F1                             l4195 0CC0  
                           l4187 0C95                             l4179 0C72                             l2941 0F2B  
                           l2933 0ECC                             l2925 0EBC                             l2917 0E94  
                           l2909 0E7A                             l2861 0E09                             l2853 0DF1  
                           l2845 0DDE                             l2837 0DD4                             l2829 0DC1  
                           l3397 0786                             l3389 0764                             l3901 16F8  
                           l3581 0A43                             l3573 0A25                             l3565 0A0F  
                           l3557 0A01                             l3549 09F3                             l4197 0CC5  
                           l4189 0CA1                             l2951 0F5C                             l2943 0F2D  
                           l2927 0EBE                             l2919 0EAD                             l2935 0ED1  
                           l2871 0E13                             l2863 0E0B                             l2847 0DE3  
                           l2855 0DF3                             l2839 0DD5                             l3399 078F  
                           l3911 1721                             l3903 16FB                             l3591 0A4E  
                           l3583 0A45                             l3575 0A29                             l3559 0A04  
                           l4199 0CCA                             l2961 0F77                             l2945 0F32  
                           l2937 0EE9                             l2929 0EC2                             l2881 0E1D  
                           l2873 0E15                             l2865 0E0D                             l2857 0E01  
                           l2849 0DE8                             l3921 173C                             l3913 1724  
                           l3905 1700                             l3585 0A48                             l3577 0A2F  
                           l3569 0A12                             l3851 153F                             l3931 0826  
                           l3923 0818                             l2963 0F7A                             l2955 0F65  
                           l2939 0F27                             l2947 0F41                             l2971 0F87  
                           l2883 0E1F                             l2875 0E17                             l2867 0E0F  
                           l2859 0E05                             l2891 0E27                             l3915 1725  
                           l3907 170B                             l3579 0A40                             l3595 0A5F  
                           l3853 1549                             l3861 165E                             l3941 083B  
                           l3933 082A                             l3925 081B                             l2981 0F9A  
                           l2973 0F88                             l2965 0F7C                             l2957 0F6E  
                           l2949 0F57                             l2893 0E28                             l2885 0E21  
                           l2877 0E19                             l2869 0E11                             l3917 1726  
                           l3909 171C                             l3855 154B                             l3871 1684  
                           l3863 1665                             l3951 085E                             l3943 083E  
                           l3935 082F                             l3927 081F                             l2983 0F9F  
                           l2991 0FD3                             l2975 0F8C                             l2967 0F81  
                           l2959 0F72                             l2895 0E3F                             l2887 0E23  
                           l2879 0E1B                             l3919 1731                             l3857 1551  
                           l3873 168B                             l3865 1675                             l3881 160A  
                           l3961 0877                             l3953 0864                             l3945 0845  
                           l3937 0833                             l3929 0824                             l2993 0FD8  
                           l2985 0FAD                             l2977 0F92                             l2969 0F83  
                           l2897 0E5B                             l2889 0E25                             l3875 1697  
                           l3867 167A                             l3859 1656                             l3891 1509  
                           l3971 07F4                             l3883 1610                             l3963 087C  
                           l3955 0865                             l3947 0849                             l3939 0835  
                           l2995 0FDD                             l2987 0FB1                             l2899 0E64  
                           l3869 1681                             l3893 150A                             l3973 07F5  
                           l3877 15F2                             l3957 086C                             l3949 084D  
                           l2997 0FE5                             l2989 0FCF                             l3885 151E  
                           l3895 150B                             l3975 07F6                             l3967 07E2  
                           l3879 15FA                             l3991 16CB                             l3983 16A0  
                           l3959 0872                             l2999 0FEA                             l3887 1525  
                           l3889 1506                             l3969 07F1                             l3897 0806  
                           l3985 16A9                             l3977 169D                             l3987 16AF  
                           l3899 16F2                             ?_isr 0070                             l3997 16CE  
                           l3989 16B5                             l3999 16D7                             STR_1 1174  
                           STR_2 117A                             STR_3 110B                             STR_4 115B  
                           STR_5 10F5                             STR_6 1100                             STR_7 1133  
                           STR_8 1115                             STR_9 1129                             u4100 1763  
                           u4101 1762                             u4120 1775                             u4121 1774  
                           u4201 0946                             u4130 177F                             u4210 095F  
                           u4202 0947                             u4131 177E                             u4115 1767  
                           u4211 095E                             u4203 094C                             u4204 094D  
                           u3500 0E01                             u4300 08D7                             u4221 096E  
                           u4205 0952                             u3501 0E00                             u4301 08D6  
                           u4150 1792                             u4230 0999                             u4222 096F  
                           u4206 0953                             u3510 0E05                             u3430 0DAD  
                           u4151 1791                             u4135 177B                             u4231 0998  
                           u4223 0974                             u3511 0E04                             u3431 0DAC  
                           u4160 1797                             u4080 174D                             u4224 0975  
                           u4400 043C                             u3600 0E89                             u3520 0E3F  
                           u3440 0DB3                             u4320 08E8                             u4240 088C  
                           u4161 1796                             u4145 1786                             u4081 174C  
                           u4225 097A                             u4401 043B                             u3601 0E88  
                           u3521 0E3E                             u3441 0DB2                             u4321 08E7  
                           u4241 088B                             u4090 1758                             u4226 097B  
                           u4170 090F                             u4410 0441                             u3530 0E4A  
                           u3450 0DB8                             u4330 08ED                             u4250 08A3  
                           u4091 1757                             u4235 0995                             u4171 090E  
                           u4411 0440                             u3611 0E9F                             u3531 0E48  
                           u3451 0DB7                             u4331 08EC                             u4315 08DA  
                           u5300 1546                             u4180 092B                             u4340 03F0  
                           u3700 0F57                             u3620 0EB1                             u3612 0EA6  
                           u3540 0E4B                             u3460 0DD4                             u4260 08B7  
                           u5301 1542                             u4181 092A                             u4501 0583  
                           u4421 048E                             u4341 03EF                             u3701 0F56  
                           u3621 0EB0                             u3613 0EAD                             u3525 0E3B  
                           u3461 0DD3                             u4261 08B6                             u4190 0937  
                           u4502 058A                             u4422 0495                             u4350 03F6  
                           u3710 0F5C                             u3630 0EB5                             u3550 0E5B  
                           u3470 0DDD                             u4270 08BE                             u4191 0936  
                           u4511 05AE                             u4503 0591                             u4431 04AA  
                           u4423 049C                             u4351 03F5                             u3711 0F5B  
                           u3631 0EB4                             u3551 0E5A                             u3471 0DDC  
                           u4271 08BD                             u4255 089E                             u5320 1620  
                           u4512 05B5                             u4432 04B1                             u4360 03FB  
                           u3800 0F9F                             u3640 0EC2                             u3560 0E6C  
                           u3480 0DE3                             u5321 161F                             u4521 05D9  
                           u4513 05BC                             u4441 04D4                             u4433 04B8  
                           u4361 03FA                             u3801 0F9E                             u3641 0EC1  
                           u3561 0E6B                             u3481 0DE2                             u5314 1549  
                           u5410 085E                             u4610 067B                             u4530 0601  
                           u4522 05E0                             u4442 04DB                             u4370 041A  
                           u3810 0FB1                             u3730 0F72                             u3490 0DE8  
                           u4290 08D0                             u5330 16F8                             u5411 085D  
                           u4611 067A                             u4523 05E7                             u4451 04F0  
                           u4443 04E2                             u4371 0419                             u3811 0FB0  
                           u3731 0F71                             u3491 0DE7                             u4291 08CF  
                           u5331 16F7                             _PEIE 005E                             u4700 0715  
                           u4620 0680                             u4452 04F7                             u4380 0420  
                           u3820 0FC0                             u3740 0F77                             u3660 0EE9  
                           u3580 0E80                             u5340 171C                             u5500 0AC8  
                           u5405 084E                             u4701 0714                             u4621 067F  
                           u4605 066A                             u4541 060D                             u4453 04FE  
                           u4381 041F                             u3741 0F76                             u3725 0F67  
                           u3661 0EE8                             u3581 0E7F                             u4285 08C0  
                           u5341 171B                             u5501 0AC7                             u5430 0872  
                           u5350 081F                             u3910 15ED                             u4630 0694  
                           u4550 0629                             u4542 0614                             u4390 0425  
                           u3830 0FCF                             u3750 0F81                             u3590 0E84  
                           u4710 0730                             u5510 0B0E                             u5431 0871  
                           u5415 085A                             u5351 081E                             u3911 15EC  
                           u4631 0693                             u4543 061B                             u4535 05FC  
                           u4471 0524                             u4391 0424                             u3831 0FCE  
                           u3751 0F80                             u3671 0F00                             u3663 0EE5  
                           u3655 0EC5                             u3591 0E83                             u3575 0E6F  
                           u4711 072F                             u5511 0B0D                             u5440 0877  
                           u5360 082A                             u4640 069B                             u4472 052B  
                           u3840 0FD8                             u3760 0F87                             u3680 0F14  
                           u3672 0F01                             u4800 07AB                             u4720 0734  
                           u5600 01EE                             u5520 0B4C                             u5441 0876  
                           u5425 0866                             u5361 0829                             u3905 15E0  
                           u4641 069A                             u4561 0635                             u4481 054F  
                           u4473 0532                             u4465 0500                             u3841 0FD7  
                           u3825 0FBB                             u3761 0F86                             u3681 0F15  
                           u3673 0F06                             u4801 07AA                             u4721 0733  
                           u5601 01ED                             u5521 0B4B                             u5450 16B5  
                           u5370 083B                             u4650 06A1                             u4562 063C  
                           u4482 0556                             u3850 0FDD                             u3770 0F8C  
                           u3690 0F32                             u3682 0F1A                             u3674 0F07  
                           u4810 07AF                             u4730 0754                             u5610 0212  
                           u5530 0B87                             u5451 16B4                             u5371 083A  
                           u4651 06A0                             u4563 0643                             u4555 0624  
                           u4483 055D                             u3851 0FDC                             u3771 0F8B  
                           u3691 0F31                             u3683 0F1B                             u3675 0F0C  
                           u4811 07AE                             u4731 0753                             u5611 0211  
                           u5531 0B86                             u5460 16E3                             u4900 17D4  
                           u4660 06B3                             u3860 0FEA                             u3780 0F92  
                           u3676 0F0D                             u3940 15AA                             u4820 07C4  
                           u5620 0228                             u5540 0B95                             u5700 0CC0  
                           u5461 16E2                             u4901 17D3                             u4661 06B2  
                           u3861 0FE9                             u3781 0F91                             u3941 15A9  
                           u5621 0227                             u5541 0B94                             u5701 0CBF  
                           u4910 17DF                             u5390 084D                             u4670 06C2  
                           u4590 0667                             u3870 0FEF                             u3790 0F99  
                           u4830 07D4                             u4750 0773                             u5630 025B  
                           u5470 0A91                             u5550 0B9F                             u5710 0CE5  
                           u4911 17DE                             u5391 084C                             u4591 0666  
                           u4575 0645                             u4495 055F                             u3871 0FEE  
                           u3791 0F98                             u4831 07D3                             u4751 0772  
                           u5631 025A                             u5471 0A90                             u5551 0B9E  
                           u5711 0CE4                             u4920 17EF                             u4680 06DF  
                           u3880 0FFE                             u4840 07D8                             u5640 0279  
                           u5480 0A9F                             u5560 0BBE                             u5720 0CEB  
                           u4921 17EE                             u5385 083F                             u4681 06DE  
                           u4585 065C                             u3881 0FFD                             u4841 07D7  
                           u4825 07BF                             u4745 0765                             u5641 0278  
                           u5625 0224                             u5481 0A9E                             u5561 0BBD  
                           u5721 0CEA                             u4930 17F4                             u4850 17A7  
                           u3890 15D9                             u4690 06F9                             u3970 15C4  
                           u4770 0795                             u5650 02F3                             u5490 0AA9  
                           u5570 0C04                             u5730 0CF2                             u4931 17F3  
                           u4851 17A6                             u3891 15D8                             u4691 06F8  
                           u4675 06BD                             u3971 15C3                             u3955 15B1  
                           u4771 0794                             u5651 02F2                             u5635 0257  
                           u5491 0AA8                             u5571 0C03                             u5731 0CF1  
                           i1l76 164F                             u4940 17FC                             u4860 17B7  
                           u5660 0311                             u5580 0C42                             u5740 0D01  
                           u4941 17FB                             u4861 17B6                             u4685 06DB  
                           u3965 15B8                             u4765 0787                             u5661 0310  
                           u5581 0C41                             u5741 0D00                             u4870 17BC  
                           u4790 07A5                             u5670 03A1                             u5590 004D  
                           u5750 0D09                             u4871 17BB                             u4695 06F5  
                           u4791 07A4                             u5671 03A0                             u5807 0104  
                           u5591 004C                             u5751 0D08                             u4880 17C7  
                           u5680 03A8                             u5760 0D41                             u4881 17C6  
                           u4785 079A                             u5817 03CE                             u5681 03A7  
                           u5761 0D40                             u4890 17CE                             u5770 0D49  
                           u5690 0CB5                             u5907 1558                             u4891 17CD  
                           u5827 1527                             u5771 0D48                             u5691 0CB4  
                           u5780 0D69                             u5837 16EB                             u5781 0D68  
                           u5790 0D78                             u5847 165A                             u5791 0D77  
                           u5857 1669                             u5867 1677                             u5877 168D  
                           u5887 1699                             u5897 154E                             _main 0C72  
                           btemp 007E                             start 000C                   clcd_write@byte 0075  
                 clcd_write@mode 0072          __end_of_power_on_screen 16F2        ??_washing_program_display 0025  
                          ??_isr 0070                    ___fltol@sign1 0076                  __end_of___fladd 1000  
                          ?_main 0070                  __end_of___awdiv 0881                            STR_10 113C  
                          STR_11 111F                            STR_20 1055                            STR_12 10EA  
                          STR_21 10AE                            STR_13 118F                            STR_30 10DF  
                          STR_22 1094                            STR_14 1194                            STR_31 1180  
                          STR_23 10BB                            STR_15 1154                            STR_40 116E  
                          STR_32 1044                            STR_24 1011                            STR_16 1185  
                          STR_41 1162                            STR_33 114D                            STR_25 1033  
                          STR_17 1198                            STR_42 116E                            STR_34 1168  
                          STR_26 1076                            STR_18 1022                            STR_43 1162  
                          STR_35 1145                            STR_27 10D3                            STR_19 1000  
                          STR_36 10DF                            STR_44 116E                            STR_28 10C7  
                __end_of___awmod 17A1                            STR_37 1180                            STR_45 118A  
                          STR_29 10A1                            STR_38 1044                            STR_46 1066  
                          STR_39 118A                            STR_47 1086                  __end_of___flmul 0728  
                __end_of___flsub 15A4                  __end_of___fltol 08F9                  ___awdiv@divisor 0072  
          ?_set_time_for_program 0070                     ?_init_config 0070                  ___awdiv@counter 0020  
                          _PORTB 0006                            _PORTD 0008                            _TRISB 0086  
                          _TRISD 0088                     ?_init_timer2 0070             __end_of_clear_screen 152B  
          run_program@total_time 0062                            main@j 00C2                            pclath 000A  
                          status 0003                            wtemp0 007E                  __initialization 000F  
                   __end_of_main 0DA0                           ??_main 0079                   run_program@key 005F  
__end_of_washing_program_display 0B7C                 ___awdiv@dividend 0074                           i1l2681 163D  
                         i1l2673 1621                           i1l2683 1640                           i1l2691 164E  
                         i1l2675 1627                           i1l2685 1645                           i1l2677 1636  
                         i1l2687 164A                           i1l2679 1638                           i1l2689 164C  
                         u324_20 1627                           u324_21 1626                           u325_20 1636  
                         u325_21 1635                           u326_20 163D                           u326_21 163C  
                         u327_20 1645                           u327_21 1644                           u328_20 164A  
                         u328_21 1649                           _TMR2IE 0461                           _TMR2IF 0061  
                         _TMR2ON 0092                           _TRISC1 0439                           _TRISC2 043A  
                         _TRISE1 0449                           _TRISE2 044A                 __end_of___xxtofl 07E2  
    __end_of_init_digital_keypad 07FE                           ___flge 08F9          _init_display_controller 1656  
                      ??___fladd 0028                           ___wmul 15A4                        ??___awdiv 0076  
               ?_power_on_screen 0070                        ??___awmod 0076                        ??___flmul 0032  
                      ??___flsub 0076                        ??___fltol 0048      __end_of_water_level_display 0C72  
               ___awdiv@quotient 0022                  ___awmod@divisor 0072           ??_set_time_for_program 0072  
                ___awmod@counter 0076                           saved_w 007E                       ___flge@ff1 004C  
                     ___flge@ff2 0050                     ___xxtofl@arg 0026                     ___xxtofl@exp 0025  
                   ___xxtofl@val 0072          __end_of__initialization 0039                       ___fltol@f1 0044  
                 __pcstackCOMMON 0070                     __pidataBANK0 07FE                     __pidataBANK1 155E  
                   ?_run_program 0070                       __pbssBANK0 0060                       __pbssBANK1 00C7  
                run_program@time 0060        ??_init_display_controller 0076                       _clcd_print 15F2  
                     _clcd_putch 0803                       _clcd_write 153E                __end_of__Umul8_16 15F2  
                     __pmaintext 0C72                     _clear_screen 151E                          ?___flge 004C  
                        ?___wmul 0072                       __pintentry 0004                          _T2CKPS0 0090  
                        _T2CKPS1 0091      __end_of_read_digital_keypad 1800                        ?___xxtofl 0072  
                     __stringtab 119C                          ___fladd 0DA0                          ___awdiv 0818  
                        ___awmod 1748                          ___flmul 03E3                          ___flsub 1580  
                        ___fltol 0881                          __ptext1 0B7C                          __ptext2 0A86  
                        __ptext3 099D                          __ptext4 003D                          __ptext5 16F2  
                        __ptext6 151E                          __ptext7 0728                          __ptext8 15A4  
                        __ptext9 0881  __end_of_init_display_controller 169D                __end_of_init_clcd 1511  
                     ??___xxtofl 0020                 ___awmod@dividend 0074                          main@key 00C6  
           end_of_initialization 0039                   _operation_mode 006D                      ?_clcd_print 0076  
                    ?_clcd_putch 0078                      ?_clcd_write 0072         ?_washing_program_display 0070  
                     _reset_mode 00C9                     __pstringtext 1000                       _rinse_time 0064  
                    ___fladd@grs 0075       washing_program_display@key 0027                       _program_no 007A  
                  ___xxtofl@sign 0024                    clcd_print@str 0076                      ___flmul@grs 0039  
                 __end_of___flge 099D                   __end_of___wmul 15C9              start_initialization 000F  
                    __end_of_isr 1656                         ??___flge 0054                         ??___wmul 0076  
                     init_fetch0 152B                        __Umul8_16 15C9                      __pdataBANK0 006E  
                    __pdataBANK1 00A0       read_digital_keypad@pre_key 006C                    ??_init_config 0078  
                      ___fladd@a 0024                        ___fladd@b 0020                    ??_init_timer2 0072  
                      ___flmul@a 002E                        ___flmul@b 002A                      __pbssCOMMON 0079  
                      ___flsub@a 0044                        ___flsub@b 0048                        ___latbits 0002  
                  __pcstackBANK0 0020                    __pcstackBANK1 00C2                        __pnvBANK0 006D  
                      __pnvBANK1 00C9             power_on_screen@i_166 0029                         ?___fladd 0020  
                       ?___awdiv 0072                         ?___awmod 0072                         ?___flmul 002A  
                       ?___flsub 0044                         ?___fltol 0044                       ?__Umul8_16 0072  
                      __pstrings 119C                        _init_clcd 1506              __end_of_init_config 07F8  
              ??_power_on_screen 0025              __end_of_init_timer2 151E         ?_init_display_controller 0070  
              interrupt_function 0004                   ___wmul@product 0076                     ??_clcd_print 0079  
                   ??_clcd_putch 0079                     ??_clcd_write 0073                  _water_level_arr 00B8  
                      _wash_time 0066                        _spin_time 00C7                      __stringbase 11AE  
                      main@j_156 00C4                ___wmul@multiplier 0072               __end_of_clcd_print 1621  
             __end_of_clcd_putch 0818               __end_of_clcd_write 155E                       ?_init_clcd 0070  
            _init_digital_keypad 07F8              _water_level_display 0B7C                      ??__Umul8_16 0074  
           ?_init_digital_keypad 0070               __end_of__stringtab 11AE                      _init_config 07E2  
           ?_water_level_display 0070                         ___xxtofl 0728                      _init_timer2 1511  
                  ??_run_program 0058                         __ptext10 1580                         __ptext11 0DA0  
                       __ptext20 15F2                         __ptext12 03E3                         __ptext21 07E2  
                       __ptext13 15C9                         __ptext22 1511                         __ptext14 08F9  
                       __ptext23 07F8                         __ptext15 1748                         __ptext24 1506  
                       __ptext16 0818                         __ptext25 1656                         __ptext17 17A1  
                       __ptext26 153E                         __ptext18 169D                         __ptext27 1621  
                       __ptext19 0803     __end_of_set_time_for_program 0A86          read_digital_keypad@mode 0073  
        read_digital_keypad@once 006E                    ?_clear_screen 0070            ??_init_digital_keypad 0072  
              _door_status_check 16F2               ?_door_status_check 0070            ??_water_level_display 0025  
                       isr@count 0068              ??_door_status_check 0079                         init_ram0 152F  
                    ??_init_clcd 0078                         intlevel1 0000              __end_of_run_program 03E3  
                      stringcode 11A6                   ??_clear_screen 0076        __end_of_door_status_check 1748  
            _read_digital_keypad 17A1                _water_level_index 0079          _washing_program_display 0A86  
         __Umul8_16@multiplicand 0072                  _power_on_screen 169D                     _washing_prog 00A0  
                       stringtab 119C                    ___fladd@signs 0072             ?_read_digital_keypad 0070  
               power_on_screen@i 0028                     ___fladd@aexp 0073                     ___fladd@bexp 0074  
           __Umul8_16@multiplier 0024                __Umul8_16@product 0020  
